
benos.elf:     file format elf64-littleriscv


Disassembly of section .text.boot:

0000000080200000 <_start>:
    80200000:	10401073          	csrw	sie,zero
    80200004:	00009117          	auipc	sp,0x9
    80200008:	ffc10113          	addi	sp,sp,-4 # 80209000 <stack0>
    8020000c:	00300893          	li	a7,3
    80200010:	00000073          	ecall
    80200014:	00150513          	addi	a0,a0,1
    80200018:	000013b7          	lui	t2,0x1
    8020001c:	02750533          	mul	a0,a0,t2
    80200020:	00a10133          	add	sp,sp,a0
    80200024:	4f40006f          	j	80200518 <kernel_main>

Disassembly of section .text:

0000000080200030 <exec>:
    80200030:	ec010113          	addi	sp,sp,-320
    80200034:	12113c23          	sd	ra,312(sp)
    80200038:	12813823          	sd	s0,304(sp)
    8020003c:	14010413          	addi	s0,sp,320
    80200040:	eca43423          	sd	a0,-312(s0)
    80200044:	ecb43023          	sd	a1,-320(s0)
    80200048:	60c030ef          	jal	ra,80203654 <proc_pagetable>
    8020004c:	fea43423          	sd	a0,-24(s0)
    80200050:	00006597          	auipc	a1,0x6
    80200054:	fb058593          	addi	a1,a1,-80 # 80206000 <_trampoline>
    80200058:	00a00713          	li	a4,10
    8020005c:	00100693          	li	a3,1
    80200060:	040007b7          	lui	a5,0x4000
    80200064:	fff78793          	addi	a5,a5,-1 # 3ffffff <_start-0x7c200001>
    80200068:	00c79613          	slli	a2,a5,0xc
    8020006c:	fe843503          	ld	a0,-24(s0)
    80200070:	361000ef          	jal	ra,80200bd0 <map_page>
    80200074:	0000d797          	auipc	a5,0xd
    80200078:	fac78793          	addi	a5,a5,-84 # 8020d020 <proc_ptr>
    8020007c:	0007b783          	ld	a5,0(a5)
    80200080:	0107b783          	ld	a5,16(a5)
    80200084:	00078593          	mv	a1,a5
    80200088:	00600713          	li	a4,6
    8020008c:	00100693          	li	a3,1
    80200090:	020007b7          	lui	a5,0x2000
    80200094:	fff78793          	addi	a5,a5,-1 # 1ffffff <_start-0x7e200001>
    80200098:	00d79613          	slli	a2,a5,0xd
    8020009c:	fe843503          	ld	a0,-24(s0)
    802000a0:	331000ef          	jal	ra,80200bd0 <map_page>
    802000a4:	f8840793          	addi	a5,s0,-120
    802000a8:	00078593          	mv	a1,a5
    802000ac:	ec843503          	ld	a0,-312(s0)
    802000b0:	52c040ef          	jal	ra,802045dc <get_inode>
    802000b4:	00050793          	mv	a5,a0
    802000b8:	fef42223          	sw	a5,-28(s0)
    802000bc:	fe442783          	lw	a5,-28(s0)
    802000c0:	0007879b          	sext.w	a5,a5
    802000c4:	00079c63          	bnez	a5,802000dc <exec+0xac>
    802000c8:	00007517          	auipc	a0,0x7
    802000cc:	f3850513          	addi	a0,a0,-200 # 80207000 <_etext>
    802000d0:	238000ef          	jal	ra,80200308 <printf>
    802000d4:	fff00793          	li	a5,-1
    802000d8:	1140006f          	j	802001ec <exec+0x1bc>
    802000dc:	f8840693          	addi	a3,s0,-120
    802000e0:	ed840713          	addi	a4,s0,-296
    802000e4:	f4840793          	addi	a5,s0,-184
    802000e8:	00068613          	mv	a2,a3
    802000ec:	00070593          	mv	a1,a4
    802000f0:	00078513          	mv	a0,a5
    802000f4:	7b0040ef          	jal	ra,802048a4 <read_elfhr>
    802000f8:	f0043783          	ld	a5,-256(s0)
    802000fc:	0007871b          	sext.w	a4,a5
    80200100:	f3843783          	ld	a5,-200(s0)
    80200104:	0007879b          	sext.w	a5,a5
    80200108:	00f707bb          	addw	a5,a4,a5
    8020010c:	0007879b          	sext.w	a5,a5
    80200110:	00000693          	li	a3,0
    80200114:	00078613          	mv	a2,a5
    80200118:	00000593          	li	a1,0
    8020011c:	fe843503          	ld	a0,-24(s0)
    80200120:	399000ef          	jal	ra,80200cb8 <uvmalloc>
    80200124:	ee843603          	ld	a2,-280(s0)
    80200128:	ee043783          	ld	a5,-288(s0)
    8020012c:	0007869b          	sext.w	a3,a5
    80200130:	f0043783          	ld	a5,-256(s0)
    80200134:	0007871b          	sext.w	a4,a5
    80200138:	f3843783          	ld	a5,-200(s0)
    8020013c:	0007879b          	sext.w	a5,a5
    80200140:	00f707bb          	addw	a5,a4,a5
    80200144:	0007871b          	sext.w	a4,a5
    80200148:	f8840793          	addi	a5,s0,-120
    8020014c:	00078593          	mv	a1,a5
    80200150:	fe843503          	ld	a0,-24(s0)
    80200154:	445040ef          	jal	ra,80204d98 <loadsec>
    80200158:	7a8000ef          	jal	ra,80200900 <kalloc>
    8020015c:	fca43c23          	sd	a0,-40(s0)
    80200160:	fd843783          	ld	a5,-40(s0)
    80200164:	00079863          	bnez	a5,80200174 <exec+0x144>
    80200168:	00007517          	auipc	a0,0x7
    8020016c:	eb050513          	addi	a0,a0,-336 # 80207018 <_etext+0x18>
    80200170:	328000ef          	jal	ra,80200498 <panic>
    80200174:	fd843783          	ld	a5,-40(s0)
    80200178:	01600713          	li	a4,22
    8020017c:	00100693          	li	a3,1
    80200180:	00002637          	lui	a2,0x2
    80200184:	00078593          	mv	a1,a5
    80200188:	fe843503          	ld	a0,-24(s0)
    8020018c:	245000ef          	jal	ra,80200bd0 <map_page>
    80200190:	0000d797          	auipc	a5,0xd
    80200194:	e9078793          	addi	a5,a5,-368 # 8020d020 <proc_ptr>
    80200198:	0007b783          	ld	a5,0(a5)
    8020019c:	fe843703          	ld	a4,-24(s0)
    802001a0:	00e7b423          	sd	a4,8(a5)
    802001a4:	0000d797          	auipc	a5,0xd
    802001a8:	e7c78793          	addi	a5,a5,-388 # 8020d020 <proc_ptr>
    802001ac:	0007b783          	ld	a5,0(a5)
    802001b0:	00003737          	lui	a4,0x3
    802001b4:	08e7b023          	sd	a4,128(a5)
    802001b8:	0000d797          	auipc	a5,0xd
    802001bc:	e6878793          	addi	a5,a5,-408 # 8020d020 <proc_ptr>
    802001c0:	0007b783          	ld	a5,0(a5)
    802001c4:	0107b783          	ld	a5,16(a5)
    802001c8:	f6043703          	ld	a4,-160(s0)
    802001cc:	00e7bc23          	sd	a4,24(a5)
    802001d0:	0000d797          	auipc	a5,0xd
    802001d4:	e5078793          	addi	a5,a5,-432 # 8020d020 <proc_ptr>
    802001d8:	0007b783          	ld	a5,0(a5)
    802001dc:	0107b783          	ld	a5,16(a5)
    802001e0:	00003737          	lui	a4,0x3
    802001e4:	02e7b823          	sd	a4,48(a5)
    802001e8:	00000793          	li	a5,0
    802001ec:	00078513          	mv	a0,a5
    802001f0:	13813083          	ld	ra,312(sp)
    802001f4:	13013403          	ld	s0,304(sp)
    802001f8:	14010113          	addi	sp,sp,320
    802001fc:	00008067          	ret

0000000080200200 <print_int>:
    80200200:	fc010113          	addi	sp,sp,-64
    80200204:	02113c23          	sd	ra,56(sp)
    80200208:	02813823          	sd	s0,48(sp)
    8020020c:	04010413          	addi	s0,sp,64
    80200210:	00050793          	mv	a5,a0
    80200214:	00058713          	mv	a4,a1
    80200218:	fcf42623          	sw	a5,-52(s0)
    8020021c:	00070793          	mv	a5,a4
    80200220:	fcf42423          	sw	a5,-56(s0)
    80200224:	fe042623          	sw	zero,-20(s0)
    80200228:	05c0006f          	j	80200284 <print_int+0x84>
    8020022c:	0000d797          	auipc	a5,0xd
    80200230:	dd478793          	addi	a5,a5,-556 # 8020d000 <digit>
    80200234:	0007b703          	ld	a4,0(a5)
    80200238:	fc842783          	lw	a5,-56(s0)
    8020023c:	fcc42683          	lw	a3,-52(s0)
    80200240:	02f6f7bb          	remuw	a5,a3,a5
    80200244:	0007879b          	sext.w	a5,a5
    80200248:	02079793          	slli	a5,a5,0x20
    8020024c:	0207d793          	srli	a5,a5,0x20
    80200250:	00f707b3          	add	a5,a4,a5
    80200254:	0007c703          	lbu	a4,0(a5)
    80200258:	fec42783          	lw	a5,-20(s0)
    8020025c:	ff040693          	addi	a3,s0,-16
    80200260:	00f687b3          	add	a5,a3,a5
    80200264:	fee78423          	sb	a4,-24(a5)
    80200268:	fc842783          	lw	a5,-56(s0)
    8020026c:	fcc42703          	lw	a4,-52(s0)
    80200270:	02f757bb          	divuw	a5,a4,a5
    80200274:	fcf42623          	sw	a5,-52(s0)
    80200278:	fec42783          	lw	a5,-20(s0)
    8020027c:	0017879b          	addiw	a5,a5,1
    80200280:	fef42623          	sw	a5,-20(s0)
    80200284:	fc842703          	lw	a4,-56(s0)
    80200288:	fcc42783          	lw	a5,-52(s0)
    8020028c:	0007879b          	sext.w	a5,a5
    80200290:	f8e7fee3          	bgeu	a5,a4,8020022c <print_int+0x2c>
    80200294:	0000d797          	auipc	a5,0xd
    80200298:	d6c78793          	addi	a5,a5,-660 # 8020d000 <digit>
    8020029c:	0007b703          	ld	a4,0(a5)
    802002a0:	fcc46783          	lwu	a5,-52(s0)
    802002a4:	00f707b3          	add	a5,a4,a5
    802002a8:	0007c703          	lbu	a4,0(a5)
    802002ac:	fec42783          	lw	a5,-20(s0)
    802002b0:	ff040693          	addi	a3,s0,-16
    802002b4:	00f687b3          	add	a5,a3,a5
    802002b8:	fee78423          	sb	a4,-24(a5)
    802002bc:	0280006f          	j	802002e4 <print_int+0xe4>
    802002c0:	fec42783          	lw	a5,-20(s0)
    802002c4:	ff040713          	addi	a4,s0,-16
    802002c8:	00f707b3          	add	a5,a4,a5
    802002cc:	fe87c783          	lbu	a5,-24(a5)
    802002d0:	00078513          	mv	a0,a5
    802002d4:	7d1020ef          	jal	ra,802032a4 <uart_send_c>
    802002d8:	fec42783          	lw	a5,-20(s0)
    802002dc:	fff7879b          	addiw	a5,a5,-1
    802002e0:	fef42623          	sw	a5,-20(s0)
    802002e4:	fec42783          	lw	a5,-20(s0)
    802002e8:	0007879b          	sext.w	a5,a5
    802002ec:	fc07dae3          	bgez	a5,802002c0 <print_int+0xc0>
    802002f0:	fe042623          	sw	zero,-20(s0)
    802002f4:	00000013          	nop
    802002f8:	03813083          	ld	ra,56(sp)
    802002fc:	03013403          	ld	s0,48(sp)
    80200300:	04010113          	addi	sp,sp,64
    80200304:	00008067          	ret

0000000080200308 <printf>:
    80200308:	f9010113          	addi	sp,sp,-112
    8020030c:	02113423          	sd	ra,40(sp)
    80200310:	02813023          	sd	s0,32(sp)
    80200314:	03010413          	addi	s0,sp,48
    80200318:	fca43c23          	sd	a0,-40(s0)
    8020031c:	00b43423          	sd	a1,8(s0)
    80200320:	00c43823          	sd	a2,16(s0)
    80200324:	00d43c23          	sd	a3,24(s0)
    80200328:	02e43023          	sd	a4,32(s0)
    8020032c:	02f43423          	sd	a5,40(s0)
    80200330:	03043823          	sd	a6,48(s0)
    80200334:	03143c23          	sd	a7,56(s0)
    80200338:	04040793          	addi	a5,s0,64
    8020033c:	fcf43823          	sd	a5,-48(s0)
    80200340:	fd043783          	ld	a5,-48(s0)
    80200344:	fc878793          	addi	a5,a5,-56
    80200348:	fef43423          	sd	a5,-24(s0)
    8020034c:	1280006f          	j	80200474 <printf+0x16c>
    80200350:	fd843783          	ld	a5,-40(s0)
    80200354:	0007c783          	lbu	a5,0(a5)
    80200358:	00078713          	mv	a4,a5
    8020035c:	02500793          	li	a5,37
    80200360:	0ef71c63          	bne	a4,a5,80200458 <printf+0x150>
    80200364:	fd843783          	ld	a5,-40(s0)
    80200368:	00178793          	addi	a5,a5,1
    8020036c:	fcf43c23          	sd	a5,-40(s0)
    80200370:	fd843783          	ld	a5,-40(s0)
    80200374:	0007c783          	lbu	a5,0(a5)
    80200378:	0007879b          	sext.w	a5,a5
    8020037c:	00078693          	mv	a3,a5
    80200380:	07800713          	li	a4,120
    80200384:	04e68863          	beq	a3,a4,802003d4 <printf+0xcc>
    80200388:	00078693          	mv	a3,a5
    8020038c:	07800713          	li	a4,120
    80200390:	0ad74663          	blt	a4,a3,8020043c <printf+0x134>
    80200394:	00078693          	mv	a3,a5
    80200398:	06400713          	li	a4,100
    8020039c:	00e68a63          	beq	a3,a4,802003b0 <printf+0xa8>
    802003a0:	00078713          	mv	a4,a5
    802003a4:	07000793          	li	a5,112
    802003a8:	06f70063          	beq	a4,a5,80200408 <printf+0x100>
    802003ac:	0900006f          	j	8020043c <printf+0x134>
    802003b0:	fe843783          	ld	a5,-24(s0)
    802003b4:	00878713          	addi	a4,a5,8
    802003b8:	fee43423          	sd	a4,-24(s0)
    802003bc:	0007a783          	lw	a5,0(a5)
    802003c0:	0007879b          	sext.w	a5,a5
    802003c4:	00a00593          	li	a1,10
    802003c8:	00078513          	mv	a0,a5
    802003cc:	e35ff0ef          	jal	ra,80200200 <print_int>
    802003d0:	0980006f          	j	80200468 <printf+0x160>
    802003d4:	03000513          	li	a0,48
    802003d8:	6cd020ef          	jal	ra,802032a4 <uart_send_c>
    802003dc:	07800513          	li	a0,120
    802003e0:	6c5020ef          	jal	ra,802032a4 <uart_send_c>
    802003e4:	fe843783          	ld	a5,-24(s0)
    802003e8:	00878713          	addi	a4,a5,8
    802003ec:	fee43423          	sd	a4,-24(s0)
    802003f0:	0007a783          	lw	a5,0(a5)
    802003f4:	0007879b          	sext.w	a5,a5
    802003f8:	01000593          	li	a1,16
    802003fc:	00078513          	mv	a0,a5
    80200400:	e01ff0ef          	jal	ra,80200200 <print_int>
    80200404:	0640006f          	j	80200468 <printf+0x160>
    80200408:	03000513          	li	a0,48
    8020040c:	699020ef          	jal	ra,802032a4 <uart_send_c>
    80200410:	07800513          	li	a0,120
    80200414:	691020ef          	jal	ra,802032a4 <uart_send_c>
    80200418:	fe843783          	ld	a5,-24(s0)
    8020041c:	00878713          	addi	a4,a5,8
    80200420:	fee43423          	sd	a4,-24(s0)
    80200424:	0007a783          	lw	a5,0(a5)
    80200428:	0007879b          	sext.w	a5,a5
    8020042c:	01000593          	li	a1,16
    80200430:	00078513          	mv	a0,a5
    80200434:	dcdff0ef          	jal	ra,80200200 <print_int>
    80200438:	0300006f          	j	80200468 <printf+0x160>
    8020043c:	02500513          	li	a0,37
    80200440:	665020ef          	jal	ra,802032a4 <uart_send_c>
    80200444:	fd843783          	ld	a5,-40(s0)
    80200448:	0007c783          	lbu	a5,0(a5)
    8020044c:	00078513          	mv	a0,a5
    80200450:	655020ef          	jal	ra,802032a4 <uart_send_c>
    80200454:	0140006f          	j	80200468 <printf+0x160>
    80200458:	fd843783          	ld	a5,-40(s0)
    8020045c:	0007c783          	lbu	a5,0(a5)
    80200460:	00078513          	mv	a0,a5
    80200464:	641020ef          	jal	ra,802032a4 <uart_send_c>
    80200468:	fd843783          	ld	a5,-40(s0)
    8020046c:	00178793          	addi	a5,a5,1
    80200470:	fcf43c23          	sd	a5,-40(s0)
    80200474:	fd843783          	ld	a5,-40(s0)
    80200478:	0007c783          	lbu	a5,0(a5)
    8020047c:	ec079ae3          	bnez	a5,80200350 <printf+0x48>
    80200480:	00000013          	nop
    80200484:	00000013          	nop
    80200488:	02813083          	ld	ra,40(sp)
    8020048c:	02013403          	ld	s0,32(sp)
    80200490:	07010113          	addi	sp,sp,112
    80200494:	00008067          	ret

0000000080200498 <panic>:
    80200498:	fe010113          	addi	sp,sp,-32
    8020049c:	00113c23          	sd	ra,24(sp)
    802004a0:	00813823          	sd	s0,16(sp)
    802004a4:	02010413          	addi	s0,sp,32
    802004a8:	fea43423          	sd	a0,-24(s0)
    802004ac:	00007517          	auipc	a0,0x7
    802004b0:	b8c50513          	addi	a0,a0,-1140 # 80207038 <_etext+0x38>
    802004b4:	e55ff0ef          	jal	ra,80200308 <printf>
    802004b8:	fe843503          	ld	a0,-24(s0)
    802004bc:	e4dff0ef          	jal	ra,80200308 <printf>
    802004c0:	00007517          	auipc	a0,0x7
    802004c4:	b8050513          	addi	a0,a0,-1152 # 80207040 <_etext+0x40>
    802004c8:	e41ff0ef          	jal	ra,80200308 <printf>
    802004cc:	0000006f          	j	802004cc <panic+0x34>

00000000802004d0 <w_satp>:
    802004d0:	fe010113          	addi	sp,sp,-32
    802004d4:	00813c23          	sd	s0,24(sp)
    802004d8:	02010413          	addi	s0,sp,32
    802004dc:	fea43423          	sd	a0,-24(s0)
    802004e0:	fe843783          	ld	a5,-24(s0)
    802004e4:	18079073          	csrw	satp,a5
    802004e8:	00000013          	nop
    802004ec:	01813403          	ld	s0,24(sp)
    802004f0:	02010113          	addi	sp,sp,32
    802004f4:	00008067          	ret

00000000802004f8 <sfence_vma>:
    802004f8:	ff010113          	addi	sp,sp,-16
    802004fc:	00813423          	sd	s0,8(sp)
    80200500:	01010413          	addi	s0,sp,16
    80200504:	12000073          	sfence.vma
    80200508:	00000013          	nop
    8020050c:	00813403          	ld	s0,8(sp)
    80200510:	01010113          	addi	sp,sp,16
    80200514:	00008067          	ret

0000000080200518 <kernel_main>:
    80200518:	f0010113          	addi	sp,sp,-256
    8020051c:	0e113c23          	sd	ra,248(sp)
    80200520:	0e813823          	sd	s0,240(sp)
    80200524:	10010413          	addi	s0,sp,256
    80200528:	00007797          	auipc	a5,0x7
    8020052c:	b2078793          	addi	a5,a5,-1248 # 80207048 <_etext+0x48>
    80200530:	fef43023          	sd	a5,-32(s0)
    80200534:	00010797          	auipc	a5,0x10
    80200538:	c0c78793          	addi	a5,a5,-1012 # 80210140 <print_lock>
    8020053c:	0007a023          	sw	zero,0(a5)
    80200540:	fe042623          	sw	zero,-20(s0)
    80200544:	0480006f          	j	8020058c <kernel_main+0x74>
    80200548:	00010517          	auipc	a0,0x10
    8020054c:	bf850513          	addi	a0,a0,-1032 # 80210140 <print_lock>
    80200550:	4e9020ef          	jal	ra,80203238 <acquire>
    80200554:	00010797          	auipc	a5,0x10
    80200558:	bd878793          	addi	a5,a5,-1064 # 8021012c <test_num>
    8020055c:	0007a783          	lw	a5,0(a5)
    80200560:	0017879b          	addiw	a5,a5,1
    80200564:	0007871b          	sext.w	a4,a5
    80200568:	00010797          	auipc	a5,0x10
    8020056c:	bc478793          	addi	a5,a5,-1084 # 8021012c <test_num>
    80200570:	00e7a023          	sw	a4,0(a5)
    80200574:	00010517          	auipc	a0,0x10
    80200578:	bcc50513          	addi	a0,a0,-1076 # 80210140 <print_lock>
    8020057c:	4f9020ef          	jal	ra,80203274 <release>
    80200580:	fec42783          	lw	a5,-20(s0)
    80200584:	0017879b          	addiw	a5,a5,1
    80200588:	fef42623          	sw	a5,-20(s0)
    8020058c:	fec42783          	lw	a5,-20(s0)
    80200590:	0007871b          	sext.w	a4,a5
    80200594:	03100793          	li	a5,49
    80200598:	fae7d8e3          	bge	a5,a4,80200548 <kernel_main+0x30>
    8020059c:	00010797          	auipc	a5,0x10
    802005a0:	b9078793          	addi	a5,a5,-1136 # 8021012c <test_num>
    802005a4:	0007a783          	lw	a5,0(a5)
    802005a8:	00078593          	mv	a1,a5
    802005ac:	00007517          	auipc	a0,0x7
    802005b0:	aac50513          	addi	a0,a0,-1364 # 80207058 <_etext+0x58>
    802005b4:	d55ff0ef          	jal	ra,80200308 <printf>
    802005b8:	fe043783          	ld	a5,-32(s0)
    802005bc:	00078513          	mv	a0,a5
    802005c0:	00000593          	li	a1,0
    802005c4:	00000613          	li	a2,0
    802005c8:	00200893          	li	a7,2
    802005cc:	00000073          	ecall
    802005d0:	01100793          	li	a5,17
    802005d4:	01b79593          	slli	a1,a5,0x1b
    802005d8:	00011517          	auipc	a0,0x11
    802005dc:	a2850513          	addi	a0,a0,-1496 # 80211000 <_free_mem_start>
    802005e0:	578000ef          	jal	ra,80200b58 <free_mem_in_page>
    802005e4:	00050793          	mv	a5,a0
    802005e8:	fcf42e23          	sw	a5,-36(s0)
    802005ec:	88000637          	lui	a2,0x88000
    802005f0:	00011597          	auipc	a1,0x11
    802005f4:	a1058593          	addi	a1,a1,-1520 # 80211000 <_free_mem_start>
    802005f8:	00007517          	auipc	a0,0x7
    802005fc:	a6850513          	addi	a0,a0,-1432 # 80207060 <_etext+0x60>
    80200600:	d09ff0ef          	jal	ra,80200308 <printf>
    80200604:	fdc42783          	lw	a5,-36(s0)
    80200608:	00078593          	mv	a1,a5
    8020060c:	00007517          	auipc	a0,0x7
    80200610:	a7c50513          	addi	a0,a0,-1412 # 80207088 <_etext+0x88>
    80200614:	cf5ff0ef          	jal	ra,80200308 <printf>
    80200618:	00011797          	auipc	a5,0x11
    8020061c:	9e878793          	addi	a5,a5,-1560 # 80211000 <_free_mem_start>
    80200620:	01100713          	li	a4,17
    80200624:	01b71713          	slli	a4,a4,0x1b
    80200628:	40f707b3          	sub	a5,a4,a5
    8020062c:	00c7d793          	srli	a5,a5,0xc
    80200630:	fcf42c23          	sw	a5,-40(s0)
    80200634:	fdc42703          	lw	a4,-36(s0)
    80200638:	fd842783          	lw	a5,-40(s0)
    8020063c:	0007879b          	sext.w	a5,a5
    80200640:	00e79a63          	bne	a5,a4,80200654 <kernel_main+0x13c>
    80200644:	00007517          	auipc	a0,0x7
    80200648:	a5450513          	addi	a0,a0,-1452 # 80207098 <_etext+0x98>
    8020064c:	4ad020ef          	jal	ra,802032f8 <uart_send_str>
    80200650:	0180006f          	j	80200668 <kernel_main+0x150>
    80200654:	fd842783          	lw	a5,-40(s0)
    80200658:	00078593          	mv	a1,a5
    8020065c:	00007517          	auipc	a0,0x7
    80200660:	a4c50513          	addi	a0,a0,-1460 # 802070a8 <_etext+0xa8>
    80200664:	ca5ff0ef          	jal	ra,80200308 <printf>
    80200668:	00006717          	auipc	a4,0x6
    8020066c:	99870713          	addi	a4,a4,-1640 # 80206000 <_trampoline>
    80200670:	800007b7          	lui	a5,0x80000
    80200674:	00f707b3          	add	a5,a4,a5
    80200678:	00c7d793          	srli	a5,a5,0xc
    8020067c:	00e00713          	li	a4,14
    80200680:	00078693          	mv	a3,a5
    80200684:	00100793          	li	a5,1
    80200688:	01f79613          	slli	a2,a5,0x1f
    8020068c:	00100793          	li	a5,1
    80200690:	01f79593          	slli	a1,a5,0x1f
    80200694:	0000e517          	auipc	a0,0xe
    80200698:	96c50513          	addi	a0,a0,-1684 # 8020e000 <_pgt_start>
    8020069c:	534000ef          	jal	ra,80200bd0 <map_page>
    802006a0:	00006597          	auipc	a1,0x6
    802006a4:	96058593          	addi	a1,a1,-1696 # 80206000 <_trampoline>
    802006a8:	00007717          	auipc	a4,0x7
    802006ac:	95870713          	addi	a4,a4,-1704 # 80207000 <_etext>
    802006b0:	00006797          	auipc	a5,0x6
    802006b4:	95078793          	addi	a5,a5,-1712 # 80206000 <_trampoline>
    802006b8:	40f707b3          	sub	a5,a4,a5
    802006bc:	00c7d793          	srli	a5,a5,0xc
    802006c0:	00e00713          	li	a4,14
    802006c4:	00078693          	mv	a3,a5
    802006c8:	040007b7          	lui	a5,0x4000
    802006cc:	fff78793          	addi	a5,a5,-1 # 3ffffff <_start-0x7c200001>
    802006d0:	00c79613          	slli	a2,a5,0xc
    802006d4:	0000e517          	auipc	a0,0xe
    802006d8:	92c50513          	addi	a0,a0,-1748 # 8020e000 <_pgt_start>
    802006dc:	4f4000ef          	jal	ra,80200bd0 <map_page>
    802006e0:	00007597          	auipc	a1,0x7
    802006e4:	92058593          	addi	a1,a1,-1760 # 80207000 <_etext>
    802006e8:	00007617          	auipc	a2,0x7
    802006ec:	91860613          	addi	a2,a2,-1768 # 80207000 <_etext>
    802006f0:	00007797          	auipc	a5,0x7
    802006f4:	91078793          	addi	a5,a5,-1776 # 80207000 <_etext>
    802006f8:	01100713          	li	a4,17
    802006fc:	01b71713          	slli	a4,a4,0x1b
    80200700:	40f707b3          	sub	a5,a4,a5
    80200704:	00c7d793          	srli	a5,a5,0xc
    80200708:	00e00713          	li	a4,14
    8020070c:	00078693          	mv	a3,a5
    80200710:	0000e517          	auipc	a0,0xe
    80200714:	8f050513          	addi	a0,a0,-1808 # 8020e000 <_pgt_start>
    80200718:	4b8000ef          	jal	ra,80200bd0 <map_page>
    8020071c:	00e00713          	li	a4,14
    80200720:	00100693          	li	a3,1
    80200724:	10000637          	lui	a2,0x10000
    80200728:	100005b7          	lui	a1,0x10000
    8020072c:	0000e517          	auipc	a0,0xe
    80200730:	8d450513          	addi	a0,a0,-1836 # 8020e000 <_pgt_start>
    80200734:	49c000ef          	jal	ra,80200bd0 <map_page>
    80200738:	00e00713          	li	a4,14
    8020073c:	000016b7          	lui	a3,0x1
    80200740:	0c000637          	lui	a2,0xc000
    80200744:	0c0005b7          	lui	a1,0xc000
    80200748:	0000e517          	auipc	a0,0xe
    8020074c:	8b850513          	addi	a0,a0,-1864 # 8020e000 <_pgt_start>
    80200750:	480000ef          	jal	ra,80200bd0 <map_page>
    80200754:	00e00713          	li	a4,14
    80200758:	00100693          	li	a3,1
    8020075c:	10001637          	lui	a2,0x10001
    80200760:	100015b7          	lui	a1,0x10001
    80200764:	0000e517          	auipc	a0,0xe
    80200768:	89c50513          	addi	a0,a0,-1892 # 8020e000 <_pgt_start>
    8020076c:	464000ef          	jal	ra,80200bd0 <map_page>
    80200770:	0000e517          	auipc	a0,0xe
    80200774:	89050513          	addi	a0,a0,-1904 # 8020e000 <_pgt_start>
    80200778:	5e9020ef          	jal	ra,80203560 <init_proc_kstack>
    8020077c:	00007517          	auipc	a0,0x7
    80200780:	94450513          	addi	a0,a0,-1724 # 802070c0 <_etext+0xc0>
    80200784:	375020ef          	jal	ra,802032f8 <uart_send_str>
    80200788:	00007517          	auipc	a0,0x7
    8020078c:	95050513          	addi	a0,a0,-1712 # 802070d8 <_etext+0xd8>
    80200790:	369020ef          	jal	ra,802032f8 <uart_send_str>
    80200794:	d65ff0ef          	jal	ra,802004f8 <sfence_vma>
    80200798:	0000e797          	auipc	a5,0xe
    8020079c:	86878793          	addi	a5,a5,-1944 # 8020e000 <_pgt_start>
    802007a0:	00c7d713          	srli	a4,a5,0xc
    802007a4:	fff00793          	li	a5,-1
    802007a8:	03f79793          	slli	a5,a5,0x3f
    802007ac:	00f767b3          	or	a5,a4,a5
    802007b0:	00078513          	mv	a0,a5
    802007b4:	d1dff0ef          	jal	ra,802004d0 <w_satp>
    802007b8:	d41ff0ef          	jal	ra,802004f8 <sfence_vma>
    802007bc:	00007517          	auipc	a0,0x7
    802007c0:	92c50513          	addi	a0,a0,-1748 # 802070e8 <_etext+0xe8>
    802007c4:	335020ef          	jal	ra,802032f8 <uart_send_str>
    802007c8:	3a1010ef          	jal	ra,80202368 <src_trap_init>
    802007cc:	7f0000ef          	jal	ra,80200fbc <virt_disk_init>
    802007d0:	3d1020ef          	jal	ra,802033a0 <plicinit>
    802007d4:	409020ef          	jal	ra,802033dc <plicinithart>
    802007d8:	471030ef          	jal	ra,80204448 <fs_init>
    802007dc:	f8040793          	addi	a5,s0,-128
    802007e0:	00078593          	mv	a1,a5
    802007e4:	00007517          	auipc	a0,0x7
    802007e8:	91450513          	addi	a0,a0,-1772 # 802070f8 <_etext+0xf8>
    802007ec:	5f1030ef          	jal	ra,802045dc <get_inode>
    802007f0:	00050793          	mv	a5,a0
    802007f4:	fcf42a23          	sw	a5,-44(s0)
    802007f8:	f8040693          	addi	a3,s0,-128
    802007fc:	f0840713          	addi	a4,s0,-248
    80200800:	f4040793          	addi	a5,s0,-192
    80200804:	00068613          	mv	a2,a3
    80200808:	00070593          	mv	a1,a4
    8020080c:	00078513          	mv	a0,a5
    80200810:	094040ef          	jal	ra,802048a4 <read_elfhr>
    80200814:	6cd020ef          	jal	ra,802036e0 <user_init>
    80200818:	00007517          	auipc	a0,0x7
    8020081c:	8f050513          	addi	a0,a0,-1808 # 80207108 <_etext+0x108>
    80200820:	2d9020ef          	jal	ra,802032f8 <uart_send_str>
    80200824:	0ff0000f          	fence
    80200828:	09c030ef          	jal	ra,802038c4 <scheduler>
    8020082c:	0000006f          	j	8020082c <kernel_main+0x314>

0000000080200830 <kfree>:
    80200830:	fd010113          	addi	sp,sp,-48
    80200834:	02113423          	sd	ra,40(sp)
    80200838:	02813023          	sd	s0,32(sp)
    8020083c:	03010413          	addi	s0,sp,48
    80200840:	fca43c23          	sd	a0,-40(s0)
    80200844:	00001637          	lui	a2,0x1
    80200848:	00000593          	li	a1,0
    8020084c:	fd843503          	ld	a0,-40(s0)
    80200850:	740030ef          	jal	ra,80203f90 <memset>
    80200854:	fd843783          	ld	a5,-40(s0)
    80200858:	fef43423          	sd	a5,-24(s0)
    8020085c:	0000c797          	auipc	a5,0xc
    80200860:	7ac78793          	addi	a5,a5,1964 # 8020d008 <ori_ptr>
    80200864:	0007b703          	ld	a4,0(a5)
    80200868:	fe843783          	ld	a5,-24(s0)
    8020086c:	00e7b023          	sd	a4,0(a5)
    80200870:	0000c797          	auipc	a5,0xc
    80200874:	79878793          	addi	a5,a5,1944 # 8020d008 <ori_ptr>
    80200878:	fe843703          	ld	a4,-24(s0)
    8020087c:	00e7b023          	sd	a4,0(a5)
    80200880:	00000013          	nop
    80200884:	02813083          	ld	ra,40(sp)
    80200888:	02013403          	ld	s0,32(sp)
    8020088c:	03010113          	addi	sp,sp,48
    80200890:	00008067          	ret

0000000080200894 <kp_free_mem>:
    80200894:	fe010113          	addi	sp,sp,-32
    80200898:	00113c23          	sd	ra,24(sp)
    8020089c:	00813823          	sd	s0,16(sp)
    802008a0:	02010413          	addi	s0,sp,32
    802008a4:	0000c797          	auipc	a5,0xc
    802008a8:	76478793          	addi	a5,a5,1892 # 8020d008 <ori_ptr>
    802008ac:	0007b783          	ld	a5,0(a5)
    802008b0:	fef43423          	sd	a5,-24(s0)
    802008b4:	0200006f          	j	802008d4 <kp_free_mem+0x40>
    802008b8:	fe843583          	ld	a1,-24(s0)
    802008bc:	00007517          	auipc	a0,0x7
    802008c0:	86450513          	addi	a0,a0,-1948 # 80207120 <_etext+0x120>
    802008c4:	a45ff0ef          	jal	ra,80200308 <printf>
    802008c8:	fe843783          	ld	a5,-24(s0)
    802008cc:	0007b783          	ld	a5,0(a5)
    802008d0:	fef43423          	sd	a5,-24(s0)
    802008d4:	fe843783          	ld	a5,-24(s0)
    802008d8:	fe0790e3          	bnez	a5,802008b8 <kp_free_mem+0x24>
    802008dc:	00100593          	li	a1,1
    802008e0:	00007517          	auipc	a0,0x7
    802008e4:	84850513          	addi	a0,a0,-1976 # 80207128 <_etext+0x128>
    802008e8:	a21ff0ef          	jal	ra,80200308 <printf>
    802008ec:	00000013          	nop
    802008f0:	01813083          	ld	ra,24(sp)
    802008f4:	01013403          	ld	s0,16(sp)
    802008f8:	02010113          	addi	sp,sp,32
    802008fc:	00008067          	ret

0000000080200900 <kalloc>:
    80200900:	fe010113          	addi	sp,sp,-32
    80200904:	00813c23          	sd	s0,24(sp)
    80200908:	02010413          	addi	s0,sp,32
    8020090c:	0000c797          	auipc	a5,0xc
    80200910:	6fc78793          	addi	a5,a5,1788 # 8020d008 <ori_ptr>
    80200914:	0007b783          	ld	a5,0(a5)
    80200918:	fef43423          	sd	a5,-24(s0)
    8020091c:	0000c797          	auipc	a5,0xc
    80200920:	6ec78793          	addi	a5,a5,1772 # 8020d008 <ori_ptr>
    80200924:	0007b783          	ld	a5,0(a5)
    80200928:	02078063          	beqz	a5,80200948 <kalloc+0x48>
    8020092c:	0000c797          	auipc	a5,0xc
    80200930:	6dc78793          	addi	a5,a5,1756 # 8020d008 <ori_ptr>
    80200934:	0007b783          	ld	a5,0(a5)
    80200938:	0007b703          	ld	a4,0(a5)
    8020093c:	0000c797          	auipc	a5,0xc
    80200940:	6cc78793          	addi	a5,a5,1740 # 8020d008 <ori_ptr>
    80200944:	00e7b023          	sd	a4,0(a5)
    80200948:	fe843783          	ld	a5,-24(s0)
    8020094c:	00078513          	mv	a0,a5
    80200950:	01813403          	ld	s0,24(sp)
    80200954:	02010113          	addi	sp,sp,32
    80200958:	00008067          	ret

000000008020095c <walk>:
    8020095c:	fc010113          	addi	sp,sp,-64
    80200960:	02113c23          	sd	ra,56(sp)
    80200964:	02813823          	sd	s0,48(sp)
    80200968:	04010413          	addi	s0,sp,64
    8020096c:	fca43c23          	sd	a0,-40(s0)
    80200970:	fcb43823          	sd	a1,-48(s0)
    80200974:	00060793          	mv	a5,a2
    80200978:	fcf42623          	sw	a5,-52(s0)
    8020097c:	00200793          	li	a5,2
    80200980:	fef42623          	sw	a5,-20(s0)
    80200984:	0b80006f          	j	80200a3c <walk+0xe0>
    80200988:	fd043783          	ld	a5,-48(s0)
    8020098c:	00c7d693          	srli	a3,a5,0xc
    80200990:	fec42703          	lw	a4,-20(s0)
    80200994:	00070793          	mv	a5,a4
    80200998:	0037979b          	slliw	a5,a5,0x3
    8020099c:	00e787bb          	addw	a5,a5,a4
    802009a0:	0007879b          	sext.w	a5,a5
    802009a4:	00f6d7b3          	srl	a5,a3,a5
    802009a8:	1ff7f793          	andi	a5,a5,511
    802009ac:	00379793          	slli	a5,a5,0x3
    802009b0:	fd843703          	ld	a4,-40(s0)
    802009b4:	00f707b3          	add	a5,a4,a5
    802009b8:	fef43023          	sd	a5,-32(s0)
    802009bc:	fe043783          	ld	a5,-32(s0)
    802009c0:	0007b783          	ld	a5,0(a5)
    802009c4:	0017f793          	andi	a5,a5,1
    802009c8:	00078e63          	beqz	a5,802009e4 <walk+0x88>
    802009cc:	fe043783          	ld	a5,-32(s0)
    802009d0:	0007b783          	ld	a5,0(a5)
    802009d4:	00a7d793          	srli	a5,a5,0xa
    802009d8:	00c79793          	slli	a5,a5,0xc
    802009dc:	fcf43c23          	sd	a5,-40(s0)
    802009e0:	0500006f          	j	80200a30 <walk+0xd4>
    802009e4:	fcc42783          	lw	a5,-52(s0)
    802009e8:	0007879b          	sext.w	a5,a5
    802009ec:	00078a63          	beqz	a5,80200a00 <walk+0xa4>
    802009f0:	f11ff0ef          	jal	ra,80200900 <kalloc>
    802009f4:	fca43c23          	sd	a0,-40(s0)
    802009f8:	fd843783          	ld	a5,-40(s0)
    802009fc:	00079663          	bnez	a5,80200a08 <walk+0xac>
    80200a00:	00000793          	li	a5,0
    80200a04:	0640006f          	j	80200a68 <walk+0x10c>
    80200a08:	00001637          	lui	a2,0x1
    80200a0c:	00000593          	li	a1,0
    80200a10:	fd843503          	ld	a0,-40(s0)
    80200a14:	57c030ef          	jal	ra,80203f90 <memset>
    80200a18:	fd843783          	ld	a5,-40(s0)
    80200a1c:	00c7d793          	srli	a5,a5,0xc
    80200a20:	00a79793          	slli	a5,a5,0xa
    80200a24:	0017e713          	ori	a4,a5,1
    80200a28:	fe043783          	ld	a5,-32(s0)
    80200a2c:	00e7b023          	sd	a4,0(a5)
    80200a30:	fec42783          	lw	a5,-20(s0)
    80200a34:	fff7879b          	addiw	a5,a5,-1
    80200a38:	fef42623          	sw	a5,-20(s0)
    80200a3c:	fec42783          	lw	a5,-20(s0)
    80200a40:	0007879b          	sext.w	a5,a5
    80200a44:	f4f042e3          	bgtz	a5,80200988 <walk+0x2c>
    80200a48:	fd043783          	ld	a5,-48(s0)
    80200a4c:	00c7d793          	srli	a5,a5,0xc
    80200a50:	1ff7f793          	andi	a5,a5,511
    80200a54:	00379793          	slli	a5,a5,0x3
    80200a58:	fd843703          	ld	a4,-40(s0)
    80200a5c:	00f707b3          	add	a5,a4,a5
    80200a60:	fef43023          	sd	a5,-32(s0)
    80200a64:	fe043783          	ld	a5,-32(s0)
    80200a68:	00078513          	mv	a0,a5
    80200a6c:	03813083          	ld	ra,56(sp)
    80200a70:	03013403          	ld	s0,48(sp)
    80200a74:	04010113          	addi	sp,sp,64
    80200a78:	00008067          	ret

0000000080200a7c <va_to_pa>:
    80200a7c:	fc010113          	addi	sp,sp,-64
    80200a80:	02113c23          	sd	ra,56(sp)
    80200a84:	02813823          	sd	s0,48(sp)
    80200a88:	04010413          	addi	s0,sp,64
    80200a8c:	fca43423          	sd	a0,-56(s0)
    80200a90:	fcb43023          	sd	a1,-64(s0)
    80200a94:	00200793          	li	a5,2
    80200a98:	fef42623          	sw	a5,-20(s0)
    80200a9c:	0700006f          	j	80200b0c <va_to_pa+0x90>
    80200aa0:	fc043783          	ld	a5,-64(s0)
    80200aa4:	00c7d693          	srli	a3,a5,0xc
    80200aa8:	fec42703          	lw	a4,-20(s0)
    80200aac:	00070793          	mv	a5,a4
    80200ab0:	0037979b          	slliw	a5,a5,0x3
    80200ab4:	00e787bb          	addw	a5,a5,a4
    80200ab8:	0007879b          	sext.w	a5,a5
    80200abc:	00f6d7b3          	srl	a5,a3,a5
    80200ac0:	1ff7f793          	andi	a5,a5,511
    80200ac4:	00379793          	slli	a5,a5,0x3
    80200ac8:	fc843703          	ld	a4,-56(s0)
    80200acc:	00f707b3          	add	a5,a4,a5
    80200ad0:	0007b783          	ld	a5,0(a5)
    80200ad4:	fcf43c23          	sd	a5,-40(s0)
    80200ad8:	fd843783          	ld	a5,-40(s0)
    80200adc:	0017f793          	andi	a5,a5,1
    80200ae0:	00079863          	bnez	a5,80200af0 <va_to_pa+0x74>
    80200ae4:	00006517          	auipc	a0,0x6
    80200ae8:	65450513          	addi	a0,a0,1620 # 80207138 <_etext+0x138>
    80200aec:	9adff0ef          	jal	ra,80200498 <panic>
    80200af0:	fd843783          	ld	a5,-40(s0)
    80200af4:	00a7d793          	srli	a5,a5,0xa
    80200af8:	00c79793          	slli	a5,a5,0xc
    80200afc:	fcf43423          	sd	a5,-56(s0)
    80200b00:	fec42783          	lw	a5,-20(s0)
    80200b04:	fff7879b          	addiw	a5,a5,-1
    80200b08:	fef42623          	sw	a5,-20(s0)
    80200b0c:	fec42783          	lw	a5,-20(s0)
    80200b10:	0007879b          	sext.w	a5,a5
    80200b14:	f8f046e3          	bgtz	a5,80200aa0 <va_to_pa+0x24>
    80200b18:	fc043783          	ld	a5,-64(s0)
    80200b1c:	00c7d793          	srli	a5,a5,0xc
    80200b20:	1ff7f793          	andi	a5,a5,511
    80200b24:	00379793          	slli	a5,a5,0x3
    80200b28:	fc843703          	ld	a4,-56(s0)
    80200b2c:	00f707b3          	add	a5,a4,a5
    80200b30:	0007b783          	ld	a5,0(a5)
    80200b34:	00a7d793          	srli	a5,a5,0xa
    80200b38:	00c79793          	slli	a5,a5,0xc
    80200b3c:	fef43023          	sd	a5,-32(s0)
    80200b40:	fe043783          	ld	a5,-32(s0)
    80200b44:	00078513          	mv	a0,a5
    80200b48:	03813083          	ld	ra,56(sp)
    80200b4c:	03013403          	ld	s0,48(sp)
    80200b50:	04010113          	addi	sp,sp,64
    80200b54:	00008067          	ret

0000000080200b58 <free_mem_in_page>:
    80200b58:	fd010113          	addi	sp,sp,-48
    80200b5c:	02113423          	sd	ra,40(sp)
    80200b60:	02813023          	sd	s0,32(sp)
    80200b64:	03010413          	addi	s0,sp,48
    80200b68:	fca43c23          	sd	a0,-40(s0)
    80200b6c:	fcb43823          	sd	a1,-48(s0)
    80200b70:	fe042623          	sw	zero,-20(s0)
    80200b74:	fd843783          	ld	a5,-40(s0)
    80200b78:	fef43023          	sd	a5,-32(s0)
    80200b7c:	0280006f          	j	80200ba4 <free_mem_in_page+0x4c>
    80200b80:	fe043503          	ld	a0,-32(s0)
    80200b84:	cadff0ef          	jal	ra,80200830 <kfree>
    80200b88:	fec42783          	lw	a5,-20(s0)
    80200b8c:	0017879b          	addiw	a5,a5,1
    80200b90:	fef42623          	sw	a5,-20(s0)
    80200b94:	fe043703          	ld	a4,-32(s0)
    80200b98:	000017b7          	lui	a5,0x1
    80200b9c:	00f707b3          	add	a5,a4,a5
    80200ba0:	fef43023          	sd	a5,-32(s0)
    80200ba4:	fe043703          	ld	a4,-32(s0)
    80200ba8:	000017b7          	lui	a5,0x1
    80200bac:	00f707b3          	add	a5,a4,a5
    80200bb0:	fd043703          	ld	a4,-48(s0)
    80200bb4:	fcf776e3          	bgeu	a4,a5,80200b80 <free_mem_in_page+0x28>
    80200bb8:	fec42783          	lw	a5,-20(s0)
    80200bbc:	00078513          	mv	a0,a5
    80200bc0:	02813083          	ld	ra,40(sp)
    80200bc4:	02013403          	ld	s0,32(sp)
    80200bc8:	03010113          	addi	sp,sp,48
    80200bcc:	00008067          	ret

0000000080200bd0 <map_page>:
    80200bd0:	fb010113          	addi	sp,sp,-80
    80200bd4:	04113423          	sd	ra,72(sp)
    80200bd8:	04813023          	sd	s0,64(sp)
    80200bdc:	05010413          	addi	s0,sp,80
    80200be0:	fca43c23          	sd	a0,-40(s0)
    80200be4:	fcb43823          	sd	a1,-48(s0)
    80200be8:	fcc43423          	sd	a2,-56(s0)
    80200bec:	fcd43023          	sd	a3,-64(s0)
    80200bf0:	00070793          	mv	a5,a4
    80200bf4:	faf42e23          	sw	a5,-68(s0)
    80200bf8:	fe042623          	sw	zero,-20(s0)
    80200bfc:	0980006f          	j	80200c94 <map_page+0xc4>
    80200c00:	00100613          	li	a2,1
    80200c04:	fc843583          	ld	a1,-56(s0)
    80200c08:	fd843503          	ld	a0,-40(s0)
    80200c0c:	d51ff0ef          	jal	ra,8020095c <walk>
    80200c10:	fea43023          	sd	a0,-32(s0)
    80200c14:	fe043783          	ld	a5,-32(s0)
    80200c18:	04078463          	beqz	a5,80200c60 <map_page+0x90>
    80200c1c:	fe043783          	ld	a5,-32(s0)
    80200c20:	0007b783          	ld	a5,0(a5) # 1000 <_start-0x801ff000>
    80200c24:	0017f793          	andi	a5,a5,1
    80200c28:	00078a63          	beqz	a5,80200c3c <map_page+0x6c>
    80200c2c:	00006517          	auipc	a0,0x6
    80200c30:	51c50513          	addi	a0,a0,1308 # 80207148 <_etext+0x148>
    80200c34:	865ff0ef          	jal	ra,80200498 <panic>
    80200c38:	0300006f          	j	80200c68 <map_page+0x98>
    80200c3c:	fd043783          	ld	a5,-48(s0)
    80200c40:	00c7d793          	srli	a5,a5,0xc
    80200c44:	00a79713          	slli	a4,a5,0xa
    80200c48:	fbc42783          	lw	a5,-68(s0)
    80200c4c:	00f767b3          	or	a5,a4,a5
    80200c50:	0017e713          	ori	a4,a5,1
    80200c54:	fe043783          	ld	a5,-32(s0)
    80200c58:	00e7b023          	sd	a4,0(a5)
    80200c5c:	00c0006f          	j	80200c68 <map_page+0x98>
    80200c60:	00100793          	li	a5,1
    80200c64:	0400006f          	j	80200ca4 <map_page+0xd4>
    80200c68:	fc843703          	ld	a4,-56(s0)
    80200c6c:	000017b7          	lui	a5,0x1
    80200c70:	00f707b3          	add	a5,a4,a5
    80200c74:	fcf43423          	sd	a5,-56(s0)
    80200c78:	fd043703          	ld	a4,-48(s0)
    80200c7c:	000017b7          	lui	a5,0x1
    80200c80:	00f707b3          	add	a5,a4,a5
    80200c84:	fcf43823          	sd	a5,-48(s0)
    80200c88:	fec42783          	lw	a5,-20(s0)
    80200c8c:	0017879b          	addiw	a5,a5,1
    80200c90:	fef42623          	sw	a5,-20(s0)
    80200c94:	fec42783          	lw	a5,-20(s0)
    80200c98:	fc043703          	ld	a4,-64(s0)
    80200c9c:	f6e7e2e3          	bltu	a5,a4,80200c00 <map_page+0x30>
    80200ca0:	00000793          	li	a5,0
    80200ca4:	00078513          	mv	a0,a5
    80200ca8:	04813083          	ld	ra,72(sp)
    80200cac:	04013403          	ld	s0,64(sp)
    80200cb0:	05010113          	addi	sp,sp,80
    80200cb4:	00008067          	ret

0000000080200cb8 <uvmalloc>:
    80200cb8:	fc010113          	addi	sp,sp,-64
    80200cbc:	02113c23          	sd	ra,56(sp)
    80200cc0:	02813823          	sd	s0,48(sp)
    80200cc4:	04010413          	addi	s0,sp,64
    80200cc8:	fca43c23          	sd	a0,-40(s0)
    80200ccc:	fcb43823          	sd	a1,-48(s0)
    80200cd0:	00060793          	mv	a5,a2
    80200cd4:	00068713          	mv	a4,a3
    80200cd8:	fcf42623          	sw	a5,-52(s0)
    80200cdc:	00070793          	mv	a5,a4
    80200ce0:	fcf42423          	sw	a5,-56(s0)
    80200ce4:	fd043703          	ld	a4,-48(s0)
    80200ce8:	000017b7          	lui	a5,0x1
    80200cec:	fff78793          	addi	a5,a5,-1 # fff <_start-0x801ff001>
    80200cf0:	00f777b3          	and	a5,a4,a5
    80200cf4:	00078e63          	beqz	a5,80200d10 <uvmalloc+0x58>
    80200cf8:	fd043703          	ld	a4,-48(s0)
    80200cfc:	fffff7b7          	lui	a5,0xfffff
    80200d00:	00f77733          	and	a4,a4,a5
    80200d04:	000017b7          	lui	a5,0x1
    80200d08:	00f707b3          	add	a5,a4,a5
    80200d0c:	fcf43823          	sd	a5,-48(s0)
    80200d10:	fd043783          	ld	a5,-48(s0)
    80200d14:	fef43423          	sd	a5,-24(s0)
    80200d18:	0600006f          	j	80200d78 <uvmalloc+0xc0>
    80200d1c:	be5ff0ef          	jal	ra,80200900 <kalloc>
    80200d20:	fea43023          	sd	a0,-32(s0)
    80200d24:	fe043783          	ld	a5,-32(s0)
    80200d28:	00079663          	bnez	a5,80200d34 <uvmalloc+0x7c>
    80200d2c:	00000793          	li	a5,0
    80200d30:	0580006f          	j	80200d88 <uvmalloc+0xd0>
    80200d34:	00001637          	lui	a2,0x1
    80200d38:	00000593          	li	a1,0
    80200d3c:	fe043503          	ld	a0,-32(s0)
    80200d40:	250030ef          	jal	ra,80203f90 <memset>
    80200d44:	fe043583          	ld	a1,-32(s0)
    80200d48:	fc842783          	lw	a5,-56(s0)
    80200d4c:	01a7e793          	ori	a5,a5,26
    80200d50:	0007879b          	sext.w	a5,a5
    80200d54:	00078713          	mv	a4,a5
    80200d58:	00100693          	li	a3,1
    80200d5c:	fe843603          	ld	a2,-24(s0)
    80200d60:	fd843503          	ld	a0,-40(s0)
    80200d64:	e6dff0ef          	jal	ra,80200bd0 <map_page>
    80200d68:	fe843703          	ld	a4,-24(s0)
    80200d6c:	000017b7          	lui	a5,0x1
    80200d70:	00f707b3          	add	a5,a4,a5
    80200d74:	fef43423          	sd	a5,-24(s0)
    80200d78:	fcc46783          	lwu	a5,-52(s0)
    80200d7c:	fe843703          	ld	a4,-24(s0)
    80200d80:	f8f76ee3          	bltu	a4,a5,80200d1c <uvmalloc+0x64>
    80200d84:	fcc46783          	lwu	a5,-52(s0)
    80200d88:	00078513          	mv	a0,a5
    80200d8c:	03813083          	ld	ra,56(sp)
    80200d90:	03013403          	ld	s0,48(sp)
    80200d94:	04010113          	addi	sp,sp,64
    80200d98:	00008067          	ret

0000000080200d9c <copy_from_user>:
    80200d9c:	fb010113          	addi	sp,sp,-80
    80200da0:	04113423          	sd	ra,72(sp)
    80200da4:	04813023          	sd	s0,64(sp)
    80200da8:	05010413          	addi	s0,sp,80
    80200dac:	fca43423          	sd	a0,-56(s0)
    80200db0:	fcb43023          	sd	a1,-64(s0)
    80200db4:	fac43c23          	sd	a2,-72(s0)
    80200db8:	fad43823          	sd	a3,-80(s0)
    80200dbc:	fe043023          	sd	zero,-32(s0)
    80200dc0:	fc043c23          	sd	zero,-40(s0)
    80200dc4:	fc043823          	sd	zero,-48(s0)
    80200dc8:	fe043423          	sd	zero,-24(s0)
    80200dcc:	0c00006f          	j	80200e8c <copy_from_user+0xf0>
    80200dd0:	fb843703          	ld	a4,-72(s0)
    80200dd4:	fffff7b7          	lui	a5,0xfffff
    80200dd8:	00f777b3          	and	a5,a4,a5
    80200ddc:	fcf43c23          	sd	a5,-40(s0)
    80200de0:	fd843583          	ld	a1,-40(s0)
    80200de4:	fc843503          	ld	a0,-56(s0)
    80200de8:	c95ff0ef          	jal	ra,80200a7c <va_to_pa>
    80200dec:	fea43023          	sd	a0,-32(s0)
    80200df0:	fb843703          	ld	a4,-72(s0)
    80200df4:	fd843783          	ld	a5,-40(s0)
    80200df8:	40f707b3          	sub	a5,a4,a5
    80200dfc:	fcf43823          	sd	a5,-48(s0)
    80200e00:	fe043703          	ld	a4,-32(s0)
    80200e04:	fd043783          	ld	a5,-48(s0)
    80200e08:	00f707b3          	add	a5,a4,a5
    80200e0c:	fef43023          	sd	a5,-32(s0)
    80200e10:	fd043703          	ld	a4,-48(s0)
    80200e14:	fb043783          	ld	a5,-80(s0)
    80200e18:	00f70733          	add	a4,a4,a5
    80200e1c:	000017b7          	lui	a5,0x1
    80200e20:	00f77863          	bgeu	a4,a5,80200e30 <copy_from_user+0x94>
    80200e24:	fb043783          	ld	a5,-80(s0)
    80200e28:	fef43423          	sd	a5,-24(s0)
    80200e2c:	0140006f          	j	80200e40 <copy_from_user+0xa4>
    80200e30:	00001737          	lui	a4,0x1
    80200e34:	fd043783          	ld	a5,-48(s0)
    80200e38:	40f707b3          	sub	a5,a4,a5
    80200e3c:	fef43423          	sd	a5,-24(s0)
    80200e40:	fe043783          	ld	a5,-32(s0)
    80200e44:	fb043703          	ld	a4,-80(s0)
    80200e48:	0007071b          	sext.w	a4,a4
    80200e4c:	00070613          	mv	a2,a4
    80200e50:	00078593          	mv	a1,a5
    80200e54:	fc043503          	ld	a0,-64(s0)
    80200e58:	1c0030ef          	jal	ra,80204018 <memmove>
    80200e5c:	fb043703          	ld	a4,-80(s0)
    80200e60:	fe843783          	ld	a5,-24(s0)
    80200e64:	40f707b3          	sub	a5,a4,a5
    80200e68:	faf43823          	sd	a5,-80(s0)
    80200e6c:	fe043703          	ld	a4,-32(s0)
    80200e70:	fe843783          	ld	a5,-24(s0)
    80200e74:	00f707b3          	add	a5,a4,a5
    80200e78:	fef43023          	sd	a5,-32(s0)
    80200e7c:	fb843703          	ld	a4,-72(s0)
    80200e80:	fe843783          	ld	a5,-24(s0)
    80200e84:	00f707b3          	add	a5,a4,a5
    80200e88:	faf43c23          	sd	a5,-72(s0)
    80200e8c:	fb043783          	ld	a5,-80(s0)
    80200e90:	f40790e3          	bnez	a5,80200dd0 <copy_from_user+0x34>
    80200e94:	00000793          	li	a5,0
    80200e98:	00078513          	mv	a0,a5
    80200e9c:	04813083          	ld	ra,72(sp)
    80200ea0:	04013403          	ld	s0,64(sp)
    80200ea4:	05010113          	addi	sp,sp,80
    80200ea8:	00008067          	ret

0000000080200eac <copy_to_user>:
    80200eac:	fb010113          	addi	sp,sp,-80
    80200eb0:	04113423          	sd	ra,72(sp)
    80200eb4:	04813023          	sd	s0,64(sp)
    80200eb8:	05010413          	addi	s0,sp,80
    80200ebc:	fca43423          	sd	a0,-56(s0)
    80200ec0:	fcb43023          	sd	a1,-64(s0)
    80200ec4:	fac43c23          	sd	a2,-72(s0)
    80200ec8:	fad43823          	sd	a3,-80(s0)
    80200ecc:	fe043023          	sd	zero,-32(s0)
    80200ed0:	fc043c23          	sd	zero,-40(s0)
    80200ed4:	fc043823          	sd	zero,-48(s0)
    80200ed8:	fe043423          	sd	zero,-24(s0)
    80200edc:	0c00006f          	j	80200f9c <copy_to_user+0xf0>
    80200ee0:	fc043703          	ld	a4,-64(s0)
    80200ee4:	fffff7b7          	lui	a5,0xfffff
    80200ee8:	00f777b3          	and	a5,a4,a5
    80200eec:	fcf43c23          	sd	a5,-40(s0)
    80200ef0:	fd843583          	ld	a1,-40(s0)
    80200ef4:	fc843503          	ld	a0,-56(s0)
    80200ef8:	b85ff0ef          	jal	ra,80200a7c <va_to_pa>
    80200efc:	fea43023          	sd	a0,-32(s0)
    80200f00:	fc043703          	ld	a4,-64(s0)
    80200f04:	fd843783          	ld	a5,-40(s0)
    80200f08:	40f707b3          	sub	a5,a4,a5
    80200f0c:	fcf43823          	sd	a5,-48(s0)
    80200f10:	fe043703          	ld	a4,-32(s0)
    80200f14:	fd043783          	ld	a5,-48(s0)
    80200f18:	00f707b3          	add	a5,a4,a5
    80200f1c:	fef43023          	sd	a5,-32(s0)
    80200f20:	fd043703          	ld	a4,-48(s0)
    80200f24:	fb043783          	ld	a5,-80(s0)
    80200f28:	00f70733          	add	a4,a4,a5
    80200f2c:	000017b7          	lui	a5,0x1
    80200f30:	00f77863          	bgeu	a4,a5,80200f40 <copy_to_user+0x94>
    80200f34:	fb043783          	ld	a5,-80(s0)
    80200f38:	fef43423          	sd	a5,-24(s0)
    80200f3c:	0140006f          	j	80200f50 <copy_to_user+0xa4>
    80200f40:	00001737          	lui	a4,0x1
    80200f44:	fd043783          	ld	a5,-48(s0)
    80200f48:	40f707b3          	sub	a5,a4,a5
    80200f4c:	fef43423          	sd	a5,-24(s0)
    80200f50:	fe043783          	ld	a5,-32(s0)
    80200f54:	fb043703          	ld	a4,-80(s0)
    80200f58:	0007071b          	sext.w	a4,a4
    80200f5c:	00070613          	mv	a2,a4
    80200f60:	fb843583          	ld	a1,-72(s0)
    80200f64:	00078513          	mv	a0,a5
    80200f68:	0b0030ef          	jal	ra,80204018 <memmove>
    80200f6c:	fb043703          	ld	a4,-80(s0)
    80200f70:	fe843783          	ld	a5,-24(s0)
    80200f74:	40f707b3          	sub	a5,a4,a5
    80200f78:	faf43823          	sd	a5,-80(s0)
    80200f7c:	fe043703          	ld	a4,-32(s0)
    80200f80:	fe843783          	ld	a5,-24(s0)
    80200f84:	00f707b3          	add	a5,a4,a5
    80200f88:	fef43023          	sd	a5,-32(s0)
    80200f8c:	fb843703          	ld	a4,-72(s0)
    80200f90:	fe843783          	ld	a5,-24(s0)
    80200f94:	00f707b3          	add	a5,a4,a5
    80200f98:	faf43c23          	sd	a5,-72(s0)
    80200f9c:	fb043783          	ld	a5,-80(s0)
    80200fa0:	f40790e3          	bnez	a5,80200ee0 <copy_to_user+0x34>
    80200fa4:	00000793          	li	a5,0
    80200fa8:	00078513          	mv	a0,a5
    80200fac:	04813083          	ld	ra,72(sp)
    80200fb0:	04013403          	ld	s0,64(sp)
    80200fb4:	05010113          	addi	sp,sp,80
    80200fb8:	00008067          	ret

0000000080200fbc <virt_disk_init>:
    80200fbc:	fd010113          	addi	sp,sp,-48
    80200fc0:	02113423          	sd	ra,40(sp)
    80200fc4:	02813023          	sd	s0,32(sp)
    80200fc8:	03010413          	addi	s0,sp,48
    80200fcc:	fe042423          	sw	zero,-24(s0)
    80200fd0:	100017b7          	lui	a5,0x10001
    80200fd4:	0007a783          	lw	a5,0(a5) # 10001000 <_start-0x701ff000>
    80200fd8:	0007879b          	sext.w	a5,a5
    80200fdc:	00078713          	mv	a4,a5
    80200fe0:	747277b7          	lui	a5,0x74727
    80200fe4:	97678793          	addi	a5,a5,-1674 # 74726976 <_start-0xbad968a>
    80200fe8:	04f71e63          	bne	a4,a5,80201044 <virt_disk_init+0x88>
    80200fec:	100017b7          	lui	a5,0x10001
    80200ff0:	00478793          	addi	a5,a5,4 # 10001004 <_start-0x701feffc>
    80200ff4:	0007a783          	lw	a5,0(a5)
    80200ff8:	0007879b          	sext.w	a5,a5
    80200ffc:	00078713          	mv	a4,a5
    80201000:	00200793          	li	a5,2
    80201004:	04f71063          	bne	a4,a5,80201044 <virt_disk_init+0x88>
    80201008:	100017b7          	lui	a5,0x10001
    8020100c:	00878793          	addi	a5,a5,8 # 10001008 <_start-0x701feff8>
    80201010:	0007a783          	lw	a5,0(a5)
    80201014:	0007879b          	sext.w	a5,a5
    80201018:	00078713          	mv	a4,a5
    8020101c:	00200793          	li	a5,2
    80201020:	02f71263          	bne	a4,a5,80201044 <virt_disk_init+0x88>
    80201024:	100017b7          	lui	a5,0x10001
    80201028:	00c78793          	addi	a5,a5,12 # 1000100c <_start-0x701feff4>
    8020102c:	0007a783          	lw	a5,0(a5)
    80201030:	0007879b          	sext.w	a5,a5
    80201034:	00078713          	mv	a4,a5
    80201038:	554d47b7          	lui	a5,0x554d4
    8020103c:	55178793          	addi	a5,a5,1361 # 554d4551 <_start-0x2ad2baaf>
    80201040:	00f70863          	beq	a4,a5,80201050 <virt_disk_init+0x94>
    80201044:	00006517          	auipc	a0,0x6
    80201048:	10c50513          	addi	a0,a0,268 # 80207150 <_etext+0x150>
    8020104c:	c4cff0ef          	jal	ra,80200498 <panic>
    80201050:	100017b7          	lui	a5,0x10001
    80201054:	07078793          	addi	a5,a5,112 # 10001070 <_start-0x701fef90>
    80201058:	fe842703          	lw	a4,-24(s0)
    8020105c:	00e7a023          	sw	a4,0(a5)
    80201060:	fe842783          	lw	a5,-24(s0)
    80201064:	0017e793          	ori	a5,a5,1
    80201068:	fef42423          	sw	a5,-24(s0)
    8020106c:	100017b7          	lui	a5,0x10001
    80201070:	07078793          	addi	a5,a5,112 # 10001070 <_start-0x701fef90>
    80201074:	fe842703          	lw	a4,-24(s0)
    80201078:	00e7a023          	sw	a4,0(a5)
    8020107c:	fe842783          	lw	a5,-24(s0)
    80201080:	0027e793          	ori	a5,a5,2
    80201084:	fef42423          	sw	a5,-24(s0)
    80201088:	100017b7          	lui	a5,0x10001
    8020108c:	07078793          	addi	a5,a5,112 # 10001070 <_start-0x701fef90>
    80201090:	fe842703          	lw	a4,-24(s0)
    80201094:	00e7a023          	sw	a4,0(a5)
    80201098:	100017b7          	lui	a5,0x10001
    8020109c:	01078793          	addi	a5,a5,16 # 10001010 <_start-0x701feff0>
    802010a0:	0007a783          	lw	a5,0(a5)
    802010a4:	0007879b          	sext.w	a5,a5
    802010a8:	02079793          	slli	a5,a5,0x20
    802010ac:	0207d793          	srli	a5,a5,0x20
    802010b0:	fef43023          	sd	a5,-32(s0)
    802010b4:	fe043783          	ld	a5,-32(s0)
    802010b8:	fdf7f793          	andi	a5,a5,-33
    802010bc:	fef43023          	sd	a5,-32(s0)
    802010c0:	fe043783          	ld	a5,-32(s0)
    802010c4:	f7f7f793          	andi	a5,a5,-129
    802010c8:	fef43023          	sd	a5,-32(s0)
    802010cc:	fe043703          	ld	a4,-32(s0)
    802010d0:	fffff7b7          	lui	a5,0xfffff
    802010d4:	7ff78793          	addi	a5,a5,2047 # fffffffffffff7ff <_free_mem_start+0xffffffff7fdee7ff>
    802010d8:	00f777b3          	and	a5,a4,a5
    802010dc:	fef43023          	sd	a5,-32(s0)
    802010e0:	fe043703          	ld	a4,-32(s0)
    802010e4:	fffff7b7          	lui	a5,0xfffff
    802010e8:	fff78793          	addi	a5,a5,-1 # ffffffffffffefff <_free_mem_start+0xffffffff7fdedfff>
    802010ec:	00f777b3          	and	a5,a4,a5
    802010f0:	fef43023          	sd	a5,-32(s0)
    802010f4:	fe043703          	ld	a4,-32(s0)
    802010f8:	f80007b7          	lui	a5,0xf8000
    802010fc:	fff78793          	addi	a5,a5,-1 # fffffffff7ffffff <_free_mem_start+0xffffffff77deefff>
    80201100:	00f777b3          	and	a5,a4,a5
    80201104:	fef43023          	sd	a5,-32(s0)
    80201108:	fe043703          	ld	a4,-32(s0)
    8020110c:	e00007b7          	lui	a5,0xe0000
    80201110:	fff78793          	addi	a5,a5,-1 # ffffffffdfffffff <_free_mem_start+0xffffffff5fdeefff>
    80201114:	00f777b3          	and	a5,a4,a5
    80201118:	fef43023          	sd	a5,-32(s0)
    8020111c:	fe043703          	ld	a4,-32(s0)
    80201120:	f00007b7          	lui	a5,0xf0000
    80201124:	fff78793          	addi	a5,a5,-1 # ffffffffefffffff <_free_mem_start+0xffffffff6fdeefff>
    80201128:	00f777b3          	and	a5,a4,a5
    8020112c:	fef43023          	sd	a5,-32(s0)
    80201130:	100017b7          	lui	a5,0x10001
    80201134:	02078793          	addi	a5,a5,32 # 10001020 <_start-0x701fefe0>
    80201138:	fe043703          	ld	a4,-32(s0)
    8020113c:	0007071b          	sext.w	a4,a4
    80201140:	00e7a023          	sw	a4,0(a5)
    80201144:	fe842783          	lw	a5,-24(s0)
    80201148:	0087e793          	ori	a5,a5,8
    8020114c:	fef42423          	sw	a5,-24(s0)
    80201150:	100017b7          	lui	a5,0x10001
    80201154:	07078793          	addi	a5,a5,112 # 10001070 <_start-0x701fef90>
    80201158:	fe842703          	lw	a4,-24(s0)
    8020115c:	00e7a023          	sw	a4,0(a5)
    80201160:	100017b7          	lui	a5,0x10001
    80201164:	07078793          	addi	a5,a5,112 # 10001070 <_start-0x701fef90>
    80201168:	0007a783          	lw	a5,0(a5)
    8020116c:	fef42423          	sw	a5,-24(s0)
    80201170:	fe842783          	lw	a5,-24(s0)
    80201174:	0087f793          	andi	a5,a5,8
    80201178:	0007879b          	sext.w	a5,a5
    8020117c:	00079863          	bnez	a5,8020118c <virt_disk_init+0x1d0>
    80201180:	00006517          	auipc	a0,0x6
    80201184:	ff050513          	addi	a0,a0,-16 # 80207170 <_etext+0x170>
    80201188:	b10ff0ef          	jal	ra,80200498 <panic>
    8020118c:	100017b7          	lui	a5,0x10001
    80201190:	03078793          	addi	a5,a5,48 # 10001030 <_start-0x701fefd0>
    80201194:	0007a023          	sw	zero,0(a5)
    80201198:	100017b7          	lui	a5,0x10001
    8020119c:	04478793          	addi	a5,a5,68 # 10001044 <_start-0x701fefbc>
    802011a0:	0007a783          	lw	a5,0(a5)
    802011a4:	0007879b          	sext.w	a5,a5
    802011a8:	00078863          	beqz	a5,802011b8 <virt_disk_init+0x1fc>
    802011ac:	00006517          	auipc	a0,0x6
    802011b0:	fe450513          	addi	a0,a0,-28 # 80207190 <_etext+0x190>
    802011b4:	ae4ff0ef          	jal	ra,80200498 <panic>
    802011b8:	100017b7          	lui	a5,0x10001
    802011bc:	03478793          	addi	a5,a5,52 # 10001034 <_start-0x701fefcc>
    802011c0:	0007a783          	lw	a5,0(a5)
    802011c4:	fcf42e23          	sw	a5,-36(s0)
    802011c8:	fdc42783          	lw	a5,-36(s0)
    802011cc:	0007879b          	sext.w	a5,a5
    802011d0:	00079863          	bnez	a5,802011e0 <virt_disk_init+0x224>
    802011d4:	00006517          	auipc	a0,0x6
    802011d8:	fdc50513          	addi	a0,a0,-36 # 802071b0 <_etext+0x1b0>
    802011dc:	abcff0ef          	jal	ra,80200498 <panic>
    802011e0:	fdc42783          	lw	a5,-36(s0)
    802011e4:	0007871b          	sext.w	a4,a5
    802011e8:	00700793          	li	a5,7
    802011ec:	00e7e863          	bltu	a5,a4,802011fc <virt_disk_init+0x240>
    802011f0:	00006517          	auipc	a0,0x6
    802011f4:	fe050513          	addi	a0,a0,-32 # 802071d0 <_etext+0x1d0>
    802011f8:	aa0ff0ef          	jal	ra,80200498 <panic>
    802011fc:	f04ff0ef          	jal	ra,80200900 <kalloc>
    80201200:	00050713          	mv	a4,a0
    80201204:	0000f797          	auipc	a5,0xf
    80201208:	dfc78793          	addi	a5,a5,-516 # 80210000 <disk>
    8020120c:	00e7b023          	sd	a4,0(a5)
    80201210:	ef0ff0ef          	jal	ra,80200900 <kalloc>
    80201214:	00050713          	mv	a4,a0
    80201218:	0000f797          	auipc	a5,0xf
    8020121c:	de878793          	addi	a5,a5,-536 # 80210000 <disk>
    80201220:	00e7b423          	sd	a4,8(a5)
    80201224:	edcff0ef          	jal	ra,80200900 <kalloc>
    80201228:	00050713          	mv	a4,a0
    8020122c:	0000f797          	auipc	a5,0xf
    80201230:	dd478793          	addi	a5,a5,-556 # 80210000 <disk>
    80201234:	00e7b823          	sd	a4,16(a5)
    80201238:	0000f797          	auipc	a5,0xf
    8020123c:	dc878793          	addi	a5,a5,-568 # 80210000 <disk>
    80201240:	0007b783          	ld	a5,0(a5)
    80201244:	02078263          	beqz	a5,80201268 <virt_disk_init+0x2ac>
    80201248:	0000f797          	auipc	a5,0xf
    8020124c:	db878793          	addi	a5,a5,-584 # 80210000 <disk>
    80201250:	0087b783          	ld	a5,8(a5)
    80201254:	00078a63          	beqz	a5,80201268 <virt_disk_init+0x2ac>
    80201258:	0000f797          	auipc	a5,0xf
    8020125c:	da878793          	addi	a5,a5,-600 # 80210000 <disk>
    80201260:	0107b783          	ld	a5,16(a5)
    80201264:	00079863          	bnez	a5,80201274 <virt_disk_init+0x2b8>
    80201268:	00006517          	auipc	a0,0x6
    8020126c:	f8850513          	addi	a0,a0,-120 # 802071f0 <_etext+0x1f0>
    80201270:	a28ff0ef          	jal	ra,80200498 <panic>
    80201274:	0000f797          	auipc	a5,0xf
    80201278:	d8c78793          	addi	a5,a5,-628 # 80210000 <disk>
    8020127c:	0007b783          	ld	a5,0(a5)
    80201280:	00001637          	lui	a2,0x1
    80201284:	00000593          	li	a1,0
    80201288:	00078513          	mv	a0,a5
    8020128c:	505020ef          	jal	ra,80203f90 <memset>
    80201290:	0000f797          	auipc	a5,0xf
    80201294:	d7078793          	addi	a5,a5,-656 # 80210000 <disk>
    80201298:	0087b783          	ld	a5,8(a5)
    8020129c:	00001637          	lui	a2,0x1
    802012a0:	00000593          	li	a1,0
    802012a4:	00078513          	mv	a0,a5
    802012a8:	4e9020ef          	jal	ra,80203f90 <memset>
    802012ac:	0000f797          	auipc	a5,0xf
    802012b0:	d5478793          	addi	a5,a5,-684 # 80210000 <disk>
    802012b4:	0107b783          	ld	a5,16(a5)
    802012b8:	00001637          	lui	a2,0x1
    802012bc:	00000593          	li	a1,0
    802012c0:	00078513          	mv	a0,a5
    802012c4:	4cd020ef          	jal	ra,80203f90 <memset>
    802012c8:	100017b7          	lui	a5,0x10001
    802012cc:	03878793          	addi	a5,a5,56 # 10001038 <_start-0x701fefc8>
    802012d0:	00800713          	li	a4,8
    802012d4:	00e7a023          	sw	a4,0(a5)
    802012d8:	0000f797          	auipc	a5,0xf
    802012dc:	d2878793          	addi	a5,a5,-728 # 80210000 <disk>
    802012e0:	0007b783          	ld	a5,0(a5)
    802012e4:	00078713          	mv	a4,a5
    802012e8:	100017b7          	lui	a5,0x10001
    802012ec:	08078793          	addi	a5,a5,128 # 10001080 <_start-0x701fef80>
    802012f0:	0007071b          	sext.w	a4,a4
    802012f4:	00e7a023          	sw	a4,0(a5)
    802012f8:	0000f797          	auipc	a5,0xf
    802012fc:	d0878793          	addi	a5,a5,-760 # 80210000 <disk>
    80201300:	0007b783          	ld	a5,0(a5)
    80201304:	0207d713          	srli	a4,a5,0x20
    80201308:	100017b7          	lui	a5,0x10001
    8020130c:	08478793          	addi	a5,a5,132 # 10001084 <_start-0x701fef7c>
    80201310:	0007071b          	sext.w	a4,a4
    80201314:	00e7a023          	sw	a4,0(a5)
    80201318:	0000f797          	auipc	a5,0xf
    8020131c:	ce878793          	addi	a5,a5,-792 # 80210000 <disk>
    80201320:	0087b783          	ld	a5,8(a5)
    80201324:	00078713          	mv	a4,a5
    80201328:	100017b7          	lui	a5,0x10001
    8020132c:	09078793          	addi	a5,a5,144 # 10001090 <_start-0x701fef70>
    80201330:	0007071b          	sext.w	a4,a4
    80201334:	00e7a023          	sw	a4,0(a5)
    80201338:	0000f797          	auipc	a5,0xf
    8020133c:	cc878793          	addi	a5,a5,-824 # 80210000 <disk>
    80201340:	0087b783          	ld	a5,8(a5)
    80201344:	0207d713          	srli	a4,a5,0x20
    80201348:	100017b7          	lui	a5,0x10001
    8020134c:	09478793          	addi	a5,a5,148 # 10001094 <_start-0x701fef6c>
    80201350:	0007071b          	sext.w	a4,a4
    80201354:	00e7a023          	sw	a4,0(a5)
    80201358:	0000f797          	auipc	a5,0xf
    8020135c:	ca878793          	addi	a5,a5,-856 # 80210000 <disk>
    80201360:	0107b783          	ld	a5,16(a5)
    80201364:	00078713          	mv	a4,a5
    80201368:	100017b7          	lui	a5,0x10001
    8020136c:	0a078793          	addi	a5,a5,160 # 100010a0 <_start-0x701fef60>
    80201370:	0007071b          	sext.w	a4,a4
    80201374:	00e7a023          	sw	a4,0(a5)
    80201378:	0000f797          	auipc	a5,0xf
    8020137c:	c8878793          	addi	a5,a5,-888 # 80210000 <disk>
    80201380:	0107b783          	ld	a5,16(a5)
    80201384:	0207d713          	srli	a4,a5,0x20
    80201388:	100017b7          	lui	a5,0x10001
    8020138c:	0a478793          	addi	a5,a5,164 # 100010a4 <_start-0x701fef5c>
    80201390:	0007071b          	sext.w	a4,a4
    80201394:	00e7a023          	sw	a4,0(a5)
    80201398:	100017b7          	lui	a5,0x10001
    8020139c:	04478793          	addi	a5,a5,68 # 10001044 <_start-0x701fefbc>
    802013a0:	00100713          	li	a4,1
    802013a4:	00e7a023          	sw	a4,0(a5)
    802013a8:	fe042623          	sw	zero,-20(s0)
    802013ac:	0280006f          	j	802013d4 <virt_disk_init+0x418>
    802013b0:	0000f717          	auipc	a4,0xf
    802013b4:	c5070713          	addi	a4,a4,-944 # 80210000 <disk>
    802013b8:	fec42783          	lw	a5,-20(s0)
    802013bc:	00f707b3          	add	a5,a4,a5
    802013c0:	00100713          	li	a4,1
    802013c4:	00e78c23          	sb	a4,24(a5)
    802013c8:	fec42783          	lw	a5,-20(s0)
    802013cc:	0017879b          	addiw	a5,a5,1
    802013d0:	fef42623          	sw	a5,-20(s0)
    802013d4:	fec42783          	lw	a5,-20(s0)
    802013d8:	0007871b          	sext.w	a4,a5
    802013dc:	00700793          	li	a5,7
    802013e0:	fce7d8e3          	bge	a5,a4,802013b0 <virt_disk_init+0x3f4>
    802013e4:	fe842783          	lw	a5,-24(s0)
    802013e8:	0047e793          	ori	a5,a5,4
    802013ec:	fef42423          	sw	a5,-24(s0)
    802013f0:	100017b7          	lui	a5,0x10001
    802013f4:	07078793          	addi	a5,a5,112 # 10001070 <_start-0x701fef90>
    802013f8:	fe842703          	lw	a4,-24(s0)
    802013fc:	00e7a023          	sw	a4,0(a5)
    80201400:	00006517          	auipc	a0,0x6
    80201404:	e0850513          	addi	a0,a0,-504 # 80207208 <_etext+0x208>
    80201408:	f01fe0ef          	jal	ra,80200308 <printf>
    8020140c:	00000013          	nop
    80201410:	02813083          	ld	ra,40(sp)
    80201414:	02013403          	ld	s0,32(sp)
    80201418:	03010113          	addi	sp,sp,48
    8020141c:	00008067          	ret

0000000080201420 <alloc_desc>:
    80201420:	fe010113          	addi	sp,sp,-32
    80201424:	00813c23          	sd	s0,24(sp)
    80201428:	02010413          	addi	s0,sp,32
    8020142c:	fe042623          	sw	zero,-20(s0)
    80201430:	0440006f          	j	80201474 <alloc_desc+0x54>
    80201434:	0000f717          	auipc	a4,0xf
    80201438:	bcc70713          	addi	a4,a4,-1076 # 80210000 <disk>
    8020143c:	fec42783          	lw	a5,-20(s0)
    80201440:	00f707b3          	add	a5,a4,a5
    80201444:	0187c783          	lbu	a5,24(a5)
    80201448:	02078063          	beqz	a5,80201468 <alloc_desc+0x48>
    8020144c:	0000f717          	auipc	a4,0xf
    80201450:	bb470713          	addi	a4,a4,-1100 # 80210000 <disk>
    80201454:	fec42783          	lw	a5,-20(s0)
    80201458:	00f707b3          	add	a5,a4,a5
    8020145c:	00078c23          	sb	zero,24(a5)
    80201460:	fec42783          	lw	a5,-20(s0)
    80201464:	0240006f          	j	80201488 <alloc_desc+0x68>
    80201468:	fec42783          	lw	a5,-20(s0)
    8020146c:	0017879b          	addiw	a5,a5,1
    80201470:	fef42623          	sw	a5,-20(s0)
    80201474:	fec42783          	lw	a5,-20(s0)
    80201478:	0007871b          	sext.w	a4,a5
    8020147c:	00700793          	li	a5,7
    80201480:	fae7dae3          	bge	a5,a4,80201434 <alloc_desc+0x14>
    80201484:	fff00793          	li	a5,-1
    80201488:	00078513          	mv	a0,a5
    8020148c:	01813403          	ld	s0,24(sp)
    80201490:	02010113          	addi	sp,sp,32
    80201494:	00008067          	ret

0000000080201498 <free_desc>:
    80201498:	fe010113          	addi	sp,sp,-32
    8020149c:	00113c23          	sd	ra,24(sp)
    802014a0:	00813823          	sd	s0,16(sp)
    802014a4:	02010413          	addi	s0,sp,32
    802014a8:	00050793          	mv	a5,a0
    802014ac:	fef42623          	sw	a5,-20(s0)
    802014b0:	fec42783          	lw	a5,-20(s0)
    802014b4:	0007871b          	sext.w	a4,a5
    802014b8:	00700793          	li	a5,7
    802014bc:	00e7d863          	bge	a5,a4,802014cc <free_desc+0x34>
    802014c0:	00006517          	auipc	a0,0x6
    802014c4:	d6050513          	addi	a0,a0,-672 # 80207220 <_etext+0x220>
    802014c8:	fd1fe0ef          	jal	ra,80200498 <panic>
    802014cc:	0000f717          	auipc	a4,0xf
    802014d0:	b3470713          	addi	a4,a4,-1228 # 80210000 <disk>
    802014d4:	fec42783          	lw	a5,-20(s0)
    802014d8:	00f707b3          	add	a5,a4,a5
    802014dc:	0187c783          	lbu	a5,24(a5)
    802014e0:	00078863          	beqz	a5,802014f0 <free_desc+0x58>
    802014e4:	00006517          	auipc	a0,0x6
    802014e8:	d4c50513          	addi	a0,a0,-692 # 80207230 <_etext+0x230>
    802014ec:	fadfe0ef          	jal	ra,80200498 <panic>
    802014f0:	0000f797          	auipc	a5,0xf
    802014f4:	b1078793          	addi	a5,a5,-1264 # 80210000 <disk>
    802014f8:	0007b703          	ld	a4,0(a5)
    802014fc:	fec42783          	lw	a5,-20(s0)
    80201500:	00479793          	slli	a5,a5,0x4
    80201504:	00f707b3          	add	a5,a4,a5
    80201508:	0007b023          	sd	zero,0(a5)
    8020150c:	0000f797          	auipc	a5,0xf
    80201510:	af478793          	addi	a5,a5,-1292 # 80210000 <disk>
    80201514:	0007b703          	ld	a4,0(a5)
    80201518:	fec42783          	lw	a5,-20(s0)
    8020151c:	00479793          	slli	a5,a5,0x4
    80201520:	00f707b3          	add	a5,a4,a5
    80201524:	0007a423          	sw	zero,8(a5)
    80201528:	0000f797          	auipc	a5,0xf
    8020152c:	ad878793          	addi	a5,a5,-1320 # 80210000 <disk>
    80201530:	0007b703          	ld	a4,0(a5)
    80201534:	fec42783          	lw	a5,-20(s0)
    80201538:	00479793          	slli	a5,a5,0x4
    8020153c:	00f707b3          	add	a5,a4,a5
    80201540:	00079623          	sh	zero,12(a5)
    80201544:	0000f797          	auipc	a5,0xf
    80201548:	abc78793          	addi	a5,a5,-1348 # 80210000 <disk>
    8020154c:	0007b703          	ld	a4,0(a5)
    80201550:	fec42783          	lw	a5,-20(s0)
    80201554:	00479793          	slli	a5,a5,0x4
    80201558:	00f707b3          	add	a5,a4,a5
    8020155c:	00079723          	sh	zero,14(a5)
    80201560:	0000f717          	auipc	a4,0xf
    80201564:	aa070713          	addi	a4,a4,-1376 # 80210000 <disk>
    80201568:	fec42783          	lw	a5,-20(s0)
    8020156c:	00f707b3          	add	a5,a4,a5
    80201570:	00100713          	li	a4,1
    80201574:	00e78c23          	sb	a4,24(a5)
    80201578:	00000013          	nop
    8020157c:	01813083          	ld	ra,24(sp)
    80201580:	01013403          	ld	s0,16(sp)
    80201584:	02010113          	addi	sp,sp,32
    80201588:	00008067          	ret

000000008020158c <free_chain>:
    8020158c:	fd010113          	addi	sp,sp,-48
    80201590:	02113423          	sd	ra,40(sp)
    80201594:	02813023          	sd	s0,32(sp)
    80201598:	03010413          	addi	s0,sp,48
    8020159c:	00050793          	mv	a5,a0
    802015a0:	fcf42e23          	sw	a5,-36(s0)
    802015a4:	0000f797          	auipc	a5,0xf
    802015a8:	a5c78793          	addi	a5,a5,-1444 # 80210000 <disk>
    802015ac:	0007b703          	ld	a4,0(a5)
    802015b0:	fdc42783          	lw	a5,-36(s0)
    802015b4:	00479793          	slli	a5,a5,0x4
    802015b8:	00f707b3          	add	a5,a4,a5
    802015bc:	00c7d783          	lhu	a5,12(a5)
    802015c0:	fef42623          	sw	a5,-20(s0)
    802015c4:	0000f797          	auipc	a5,0xf
    802015c8:	a3c78793          	addi	a5,a5,-1476 # 80210000 <disk>
    802015cc:	0007b703          	ld	a4,0(a5)
    802015d0:	fdc42783          	lw	a5,-36(s0)
    802015d4:	00479793          	slli	a5,a5,0x4
    802015d8:	00f707b3          	add	a5,a4,a5
    802015dc:	00e7d783          	lhu	a5,14(a5)
    802015e0:	fef42423          	sw	a5,-24(s0)
    802015e4:	fdc42783          	lw	a5,-36(s0)
    802015e8:	00078513          	mv	a0,a5
    802015ec:	eadff0ef          	jal	ra,80201498 <free_desc>
    802015f0:	fec42783          	lw	a5,-20(s0)
    802015f4:	0017f793          	andi	a5,a5,1
    802015f8:	0007879b          	sext.w	a5,a5
    802015fc:	00078863          	beqz	a5,8020160c <free_chain+0x80>
    80201600:	fe842783          	lw	a5,-24(s0)
    80201604:	fcf42e23          	sw	a5,-36(s0)
    80201608:	f9dff06f          	j	802015a4 <free_chain+0x18>
    8020160c:	00000013          	nop
    80201610:	00000013          	nop
    80201614:	02813083          	ld	ra,40(sp)
    80201618:	02013403          	ld	s0,32(sp)
    8020161c:	03010113          	addi	sp,sp,48
    80201620:	00008067          	ret

0000000080201624 <alloc3_desc>:
    80201624:	fc010113          	addi	sp,sp,-64
    80201628:	02113c23          	sd	ra,56(sp)
    8020162c:	02813823          	sd	s0,48(sp)
    80201630:	02913423          	sd	s1,40(sp)
    80201634:	04010413          	addi	s0,sp,64
    80201638:	fca43423          	sd	a0,-56(s0)
    8020163c:	fc042e23          	sw	zero,-36(s0)
    80201640:	0900006f          	j	802016d0 <alloc3_desc+0xac>
    80201644:	fdc42783          	lw	a5,-36(s0)
    80201648:	00279793          	slli	a5,a5,0x2
    8020164c:	fc843703          	ld	a4,-56(s0)
    80201650:	00f704b3          	add	s1,a4,a5
    80201654:	dcdff0ef          	jal	ra,80201420 <alloc_desc>
    80201658:	00050793          	mv	a5,a0
    8020165c:	00f4a023          	sw	a5,0(s1)
    80201660:	fdc42783          	lw	a5,-36(s0)
    80201664:	00279793          	slli	a5,a5,0x2
    80201668:	fc843703          	ld	a4,-56(s0)
    8020166c:	00f707b3          	add	a5,a4,a5
    80201670:	0007a783          	lw	a5,0(a5)
    80201674:	0407d863          	bgez	a5,802016c4 <alloc3_desc+0xa0>
    80201678:	fc042c23          	sw	zero,-40(s0)
    8020167c:	02c0006f          	j	802016a8 <alloc3_desc+0x84>
    80201680:	fd842783          	lw	a5,-40(s0)
    80201684:	00279793          	slli	a5,a5,0x2
    80201688:	fc843703          	ld	a4,-56(s0)
    8020168c:	00f707b3          	add	a5,a4,a5
    80201690:	0007a783          	lw	a5,0(a5)
    80201694:	00078513          	mv	a0,a5
    80201698:	e01ff0ef          	jal	ra,80201498 <free_desc>
    8020169c:	fd842783          	lw	a5,-40(s0)
    802016a0:	0017879b          	addiw	a5,a5,1
    802016a4:	fcf42c23          	sw	a5,-40(s0)
    802016a8:	fd842703          	lw	a4,-40(s0)
    802016ac:	fdc42783          	lw	a5,-36(s0)
    802016b0:	0007071b          	sext.w	a4,a4
    802016b4:	0007879b          	sext.w	a5,a5
    802016b8:	fcf744e3          	blt	a4,a5,80201680 <alloc3_desc+0x5c>
    802016bc:	fff00793          	li	a5,-1
    802016c0:	0240006f          	j	802016e4 <alloc3_desc+0xc0>
    802016c4:	fdc42783          	lw	a5,-36(s0)
    802016c8:	0017879b          	addiw	a5,a5,1
    802016cc:	fcf42e23          	sw	a5,-36(s0)
    802016d0:	fdc42783          	lw	a5,-36(s0)
    802016d4:	0007871b          	sext.w	a4,a5
    802016d8:	00200793          	li	a5,2
    802016dc:	f6e7d4e3          	bge	a5,a4,80201644 <alloc3_desc+0x20>
    802016e0:	00000793          	li	a5,0
    802016e4:	00078513          	mv	a0,a5
    802016e8:	03813083          	ld	ra,56(sp)
    802016ec:	03013403          	ld	s0,48(sp)
    802016f0:	02813483          	ld	s1,40(sp)
    802016f4:	04010113          	addi	sp,sp,64
    802016f8:	00008067          	ret

00000000802016fc <virtio_disk_rw>:
    802016fc:	fc010113          	addi	sp,sp,-64
    80201700:	02113c23          	sd	ra,56(sp)
    80201704:	02813823          	sd	s0,48(sp)
    80201708:	04010413          	addi	s0,sp,64
    8020170c:	fca43423          	sd	a0,-56(s0)
    80201710:	00058793          	mv	a5,a1
    80201714:	fcf42223          	sw	a5,-60(s0)
    80201718:	fc843783          	ld	a5,-56(s0)
    8020171c:	00c7a783          	lw	a5,12(a5)
    80201720:	0017979b          	slliw	a5,a5,0x1
    80201724:	0007879b          	sext.w	a5,a5
    80201728:	02079793          	slli	a5,a5,0x20
    8020172c:	0207d793          	srli	a5,a5,0x20
    80201730:	fef43423          	sd	a5,-24(s0)
    80201734:	fd040793          	addi	a5,s0,-48
    80201738:	00078513          	mv	a0,a5
    8020173c:	ee9ff0ef          	jal	ra,80201624 <alloc3_desc>
    80201740:	00050793          	mv	a5,a0
    80201744:	00078463          	beqz	a5,8020174c <virtio_disk_rw+0x50>
    80201748:	fedff06f          	j	80201734 <virtio_disk_rw+0x38>
    8020174c:	00000013          	nop
    80201750:	fd042783          	lw	a5,-48(s0)
    80201754:	00a78793          	addi	a5,a5,10
    80201758:	00479713          	slli	a4,a5,0x4
    8020175c:	0000f797          	auipc	a5,0xf
    80201760:	8a478793          	addi	a5,a5,-1884 # 80210000 <disk>
    80201764:	00f707b3          	add	a5,a4,a5
    80201768:	00878793          	addi	a5,a5,8
    8020176c:	fef43023          	sd	a5,-32(s0)
    80201770:	fc442783          	lw	a5,-60(s0)
    80201774:	0007879b          	sext.w	a5,a5
    80201778:	00078a63          	beqz	a5,8020178c <virtio_disk_rw+0x90>
    8020177c:	fe043783          	ld	a5,-32(s0)
    80201780:	00100713          	li	a4,1
    80201784:	00e7a023          	sw	a4,0(a5)
    80201788:	00c0006f          	j	80201794 <virtio_disk_rw+0x98>
    8020178c:	fe043783          	ld	a5,-32(s0)
    80201790:	0007a023          	sw	zero,0(a5)
    80201794:	fe043783          	ld	a5,-32(s0)
    80201798:	0007a223          	sw	zero,4(a5)
    8020179c:	fe043783          	ld	a5,-32(s0)
    802017a0:	fe843703          	ld	a4,-24(s0)
    802017a4:	00e7b423          	sd	a4,8(a5)
    802017a8:	0000f797          	auipc	a5,0xf
    802017ac:	85878793          	addi	a5,a5,-1960 # 80210000 <disk>
    802017b0:	0007b703          	ld	a4,0(a5)
    802017b4:	fd042783          	lw	a5,-48(s0)
    802017b8:	00479793          	slli	a5,a5,0x4
    802017bc:	00f707b3          	add	a5,a4,a5
    802017c0:	fe043703          	ld	a4,-32(s0)
    802017c4:	00e7b023          	sd	a4,0(a5)
    802017c8:	0000f797          	auipc	a5,0xf
    802017cc:	83878793          	addi	a5,a5,-1992 # 80210000 <disk>
    802017d0:	0007b703          	ld	a4,0(a5)
    802017d4:	fd042783          	lw	a5,-48(s0)
    802017d8:	00479793          	slli	a5,a5,0x4
    802017dc:	00f707b3          	add	a5,a4,a5
    802017e0:	01000713          	li	a4,16
    802017e4:	00e7a423          	sw	a4,8(a5)
    802017e8:	0000f797          	auipc	a5,0xf
    802017ec:	81878793          	addi	a5,a5,-2024 # 80210000 <disk>
    802017f0:	0007b703          	ld	a4,0(a5)
    802017f4:	fd042783          	lw	a5,-48(s0)
    802017f8:	00479793          	slli	a5,a5,0x4
    802017fc:	00f707b3          	add	a5,a4,a5
    80201800:	00100713          	li	a4,1
    80201804:	00e79623          	sh	a4,12(a5)
    80201808:	fd442683          	lw	a3,-44(s0)
    8020180c:	0000e797          	auipc	a5,0xe
    80201810:	7f478793          	addi	a5,a5,2036 # 80210000 <disk>
    80201814:	0007b703          	ld	a4,0(a5)
    80201818:	fd042783          	lw	a5,-48(s0)
    8020181c:	00479793          	slli	a5,a5,0x4
    80201820:	00f707b3          	add	a5,a4,a5
    80201824:	03069713          	slli	a4,a3,0x30
    80201828:	03075713          	srli	a4,a4,0x30
    8020182c:	00e79723          	sh	a4,14(a5)
    80201830:	fc843783          	ld	a5,-56(s0)
    80201834:	02878693          	addi	a3,a5,40
    80201838:	0000e797          	auipc	a5,0xe
    8020183c:	7c878793          	addi	a5,a5,1992 # 80210000 <disk>
    80201840:	0007b703          	ld	a4,0(a5)
    80201844:	fd442783          	lw	a5,-44(s0)
    80201848:	00479793          	slli	a5,a5,0x4
    8020184c:	00f707b3          	add	a5,a4,a5
    80201850:	00068713          	mv	a4,a3
    80201854:	00e7b023          	sd	a4,0(a5)
    80201858:	0000e797          	auipc	a5,0xe
    8020185c:	7a878793          	addi	a5,a5,1960 # 80210000 <disk>
    80201860:	0007b703          	ld	a4,0(a5)
    80201864:	fd442783          	lw	a5,-44(s0)
    80201868:	00479793          	slli	a5,a5,0x4
    8020186c:	00f707b3          	add	a5,a4,a5
    80201870:	40000713          	li	a4,1024
    80201874:	00e7a423          	sw	a4,8(a5)
    80201878:	fc442783          	lw	a5,-60(s0)
    8020187c:	0007879b          	sext.w	a5,a5
    80201880:	02078263          	beqz	a5,802018a4 <virtio_disk_rw+0x1a8>
    80201884:	0000e797          	auipc	a5,0xe
    80201888:	77c78793          	addi	a5,a5,1916 # 80210000 <disk>
    8020188c:	0007b703          	ld	a4,0(a5)
    80201890:	fd442783          	lw	a5,-44(s0)
    80201894:	00479793          	slli	a5,a5,0x4
    80201898:	00f707b3          	add	a5,a4,a5
    8020189c:	00079623          	sh	zero,12(a5)
    802018a0:	0240006f          	j	802018c4 <virtio_disk_rw+0x1c8>
    802018a4:	0000e797          	auipc	a5,0xe
    802018a8:	75c78793          	addi	a5,a5,1884 # 80210000 <disk>
    802018ac:	0007b703          	ld	a4,0(a5)
    802018b0:	fd442783          	lw	a5,-44(s0)
    802018b4:	00479793          	slli	a5,a5,0x4
    802018b8:	00f707b3          	add	a5,a4,a5
    802018bc:	00200713          	li	a4,2
    802018c0:	00e79623          	sh	a4,12(a5)
    802018c4:	0000e797          	auipc	a5,0xe
    802018c8:	73c78793          	addi	a5,a5,1852 # 80210000 <disk>
    802018cc:	0007b703          	ld	a4,0(a5)
    802018d0:	fd442783          	lw	a5,-44(s0)
    802018d4:	00479793          	slli	a5,a5,0x4
    802018d8:	00f707b3          	add	a5,a4,a5
    802018dc:	00c7d703          	lhu	a4,12(a5)
    802018e0:	0000e797          	auipc	a5,0xe
    802018e4:	72078793          	addi	a5,a5,1824 # 80210000 <disk>
    802018e8:	0007b683          	ld	a3,0(a5)
    802018ec:	fd442783          	lw	a5,-44(s0)
    802018f0:	00479793          	slli	a5,a5,0x4
    802018f4:	00f687b3          	add	a5,a3,a5
    802018f8:	00176713          	ori	a4,a4,1
    802018fc:	03071713          	slli	a4,a4,0x30
    80201900:	03075713          	srli	a4,a4,0x30
    80201904:	00e79623          	sh	a4,12(a5)
    80201908:	fd842683          	lw	a3,-40(s0)
    8020190c:	0000e797          	auipc	a5,0xe
    80201910:	6f478793          	addi	a5,a5,1780 # 80210000 <disk>
    80201914:	0007b703          	ld	a4,0(a5)
    80201918:	fd442783          	lw	a5,-44(s0)
    8020191c:	00479793          	slli	a5,a5,0x4
    80201920:	00f707b3          	add	a5,a4,a5
    80201924:	03069713          	slli	a4,a3,0x30
    80201928:	03075713          	srli	a4,a4,0x30
    8020192c:	00e79723          	sh	a4,14(a5)
    80201930:	fd042783          	lw	a5,-48(s0)
    80201934:	0000e717          	auipc	a4,0xe
    80201938:	6cc70713          	addi	a4,a4,1740 # 80210000 <disk>
    8020193c:	00278793          	addi	a5,a5,2
    80201940:	00479793          	slli	a5,a5,0x4
    80201944:	00f707b3          	add	a5,a4,a5
    80201948:	fff00713          	li	a4,-1
    8020194c:	00e78823          	sb	a4,16(a5)
    80201950:	fd042783          	lw	a5,-48(s0)
    80201954:	00278793          	addi	a5,a5,2
    80201958:	00479713          	slli	a4,a5,0x4
    8020195c:	0000e797          	auipc	a5,0xe
    80201960:	6a478793          	addi	a5,a5,1700 # 80210000 <disk>
    80201964:	00f707b3          	add	a5,a4,a5
    80201968:	01078693          	addi	a3,a5,16
    8020196c:	0000e797          	auipc	a5,0xe
    80201970:	69478793          	addi	a5,a5,1684 # 80210000 <disk>
    80201974:	0007b703          	ld	a4,0(a5)
    80201978:	fd842783          	lw	a5,-40(s0)
    8020197c:	00479793          	slli	a5,a5,0x4
    80201980:	00f707b3          	add	a5,a4,a5
    80201984:	00068713          	mv	a4,a3
    80201988:	00e7b023          	sd	a4,0(a5)
    8020198c:	0000e797          	auipc	a5,0xe
    80201990:	67478793          	addi	a5,a5,1652 # 80210000 <disk>
    80201994:	0007b703          	ld	a4,0(a5)
    80201998:	fd842783          	lw	a5,-40(s0)
    8020199c:	00479793          	slli	a5,a5,0x4
    802019a0:	00f707b3          	add	a5,a4,a5
    802019a4:	00100713          	li	a4,1
    802019a8:	00e7a423          	sw	a4,8(a5)
    802019ac:	0000e797          	auipc	a5,0xe
    802019b0:	65478793          	addi	a5,a5,1620 # 80210000 <disk>
    802019b4:	0007b703          	ld	a4,0(a5)
    802019b8:	fd842783          	lw	a5,-40(s0)
    802019bc:	00479793          	slli	a5,a5,0x4
    802019c0:	00f707b3          	add	a5,a4,a5
    802019c4:	00200713          	li	a4,2
    802019c8:	00e79623          	sh	a4,12(a5)
    802019cc:	0000e797          	auipc	a5,0xe
    802019d0:	63478793          	addi	a5,a5,1588 # 80210000 <disk>
    802019d4:	0007b703          	ld	a4,0(a5)
    802019d8:	fd842783          	lw	a5,-40(s0)
    802019dc:	00479793          	slli	a5,a5,0x4
    802019e0:	00f707b3          	add	a5,a4,a5
    802019e4:	00079723          	sh	zero,14(a5)
    802019e8:	fc843783          	ld	a5,-56(s0)
    802019ec:	00100713          	li	a4,1
    802019f0:	00e7a223          	sw	a4,4(a5)
    802019f4:	fd042783          	lw	a5,-48(s0)
    802019f8:	0000e717          	auipc	a4,0xe
    802019fc:	60870713          	addi	a4,a4,1544 # 80210000 <disk>
    80201a00:	00278793          	addi	a5,a5,2
    80201a04:	00479793          	slli	a5,a5,0x4
    80201a08:	00f707b3          	add	a5,a4,a5
    80201a0c:	fc843703          	ld	a4,-56(s0)
    80201a10:	00e7b423          	sd	a4,8(a5)
    80201a14:	fd042703          	lw	a4,-48(s0)
    80201a18:	0000e797          	auipc	a5,0xe
    80201a1c:	5e878793          	addi	a5,a5,1512 # 80210000 <disk>
    80201a20:	0087b683          	ld	a3,8(a5)
    80201a24:	0000e797          	auipc	a5,0xe
    80201a28:	5dc78793          	addi	a5,a5,1500 # 80210000 <disk>
    80201a2c:	0087b783          	ld	a5,8(a5)
    80201a30:	0027d783          	lhu	a5,2(a5)
    80201a34:	0007879b          	sext.w	a5,a5
    80201a38:	0077f793          	andi	a5,a5,7
    80201a3c:	0007879b          	sext.w	a5,a5
    80201a40:	03071713          	slli	a4,a4,0x30
    80201a44:	03075713          	srli	a4,a4,0x30
    80201a48:	00179793          	slli	a5,a5,0x1
    80201a4c:	00f687b3          	add	a5,a3,a5
    80201a50:	00e79223          	sh	a4,4(a5)
    80201a54:	0ff0000f          	fence
    80201a58:	0000e797          	auipc	a5,0xe
    80201a5c:	5a878793          	addi	a5,a5,1448 # 80210000 <disk>
    80201a60:	0087b783          	ld	a5,8(a5)
    80201a64:	0027d703          	lhu	a4,2(a5)
    80201a68:	0000e797          	auipc	a5,0xe
    80201a6c:	59878793          	addi	a5,a5,1432 # 80210000 <disk>
    80201a70:	0087b783          	ld	a5,8(a5)
    80201a74:	0017071b          	addiw	a4,a4,1
    80201a78:	03071713          	slli	a4,a4,0x30
    80201a7c:	03075713          	srli	a4,a4,0x30
    80201a80:	00e79123          	sh	a4,2(a5)
    80201a84:	0ff0000f          	fence
    80201a88:	100017b7          	lui	a5,0x10001
    80201a8c:	05078793          	addi	a5,a5,80 # 10001050 <_start-0x701fefb0>
    80201a90:	0007a023          	sw	zero,0(a5)
    80201a94:	00000013          	nop
    80201a98:	fc843783          	ld	a5,-56(s0)
    80201a9c:	0047a783          	lw	a5,4(a5)
    80201aa0:	00078713          	mv	a4,a5
    80201aa4:	00100793          	li	a5,1
    80201aa8:	fef708e3          	beq	a4,a5,80201a98 <virtio_disk_rw+0x39c>
    80201aac:	fd042783          	lw	a5,-48(s0)
    80201ab0:	0000e717          	auipc	a4,0xe
    80201ab4:	55070713          	addi	a4,a4,1360 # 80210000 <disk>
    80201ab8:	00278793          	addi	a5,a5,2
    80201abc:	00479793          	slli	a5,a5,0x4
    80201ac0:	00f707b3          	add	a5,a4,a5
    80201ac4:	0007b423          	sd	zero,8(a5)
    80201ac8:	fd042783          	lw	a5,-48(s0)
    80201acc:	00078513          	mv	a0,a5
    80201ad0:	abdff0ef          	jal	ra,8020158c <free_chain>
    80201ad4:	00000013          	nop
    80201ad8:	03813083          	ld	ra,56(sp)
    80201adc:	03013403          	ld	s0,48(sp)
    80201ae0:	04010113          	addi	sp,sp,64
    80201ae4:	00008067          	ret

0000000080201ae8 <virtio_intr>:
    80201ae8:	fe010113          	addi	sp,sp,-32
    80201aec:	00113c23          	sd	ra,24(sp)
    80201af0:	00813823          	sd	s0,16(sp)
    80201af4:	02010413          	addi	s0,sp,32
    80201af8:	100017b7          	lui	a5,0x10001
    80201afc:	06078793          	addi	a5,a5,96 # 10001060 <_start-0x701fefa0>
    80201b00:	0007a783          	lw	a5,0(a5)
    80201b04:	0007871b          	sext.w	a4,a5
    80201b08:	100017b7          	lui	a5,0x10001
    80201b0c:	06478793          	addi	a5,a5,100 # 10001064 <_start-0x701fef9c>
    80201b10:	00377713          	andi	a4,a4,3
    80201b14:	0007071b          	sext.w	a4,a4
    80201b18:	00e7a023          	sw	a4,0(a5)
    80201b1c:	0b40006f          	j	80201bd0 <virtio_intr+0xe8>
    80201b20:	0ff0000f          	fence
    80201b24:	0000e797          	auipc	a5,0xe
    80201b28:	4dc78793          	addi	a5,a5,1244 # 80210000 <disk>
    80201b2c:	0107b703          	ld	a4,16(a5)
    80201b30:	0000e797          	auipc	a5,0xe
    80201b34:	4d078793          	addi	a5,a5,1232 # 80210000 <disk>
    80201b38:	0207d783          	lhu	a5,32(a5)
    80201b3c:	0007879b          	sext.w	a5,a5
    80201b40:	0077f793          	andi	a5,a5,7
    80201b44:	0007879b          	sext.w	a5,a5
    80201b48:	00379793          	slli	a5,a5,0x3
    80201b4c:	00f707b3          	add	a5,a4,a5
    80201b50:	0047a783          	lw	a5,4(a5)
    80201b54:	fef42623          	sw	a5,-20(s0)
    80201b58:	0000e717          	auipc	a4,0xe
    80201b5c:	4a870713          	addi	a4,a4,1192 # 80210000 <disk>
    80201b60:	fec42783          	lw	a5,-20(s0)
    80201b64:	00278793          	addi	a5,a5,2
    80201b68:	00479793          	slli	a5,a5,0x4
    80201b6c:	00f707b3          	add	a5,a4,a5
    80201b70:	0107c783          	lbu	a5,16(a5)
    80201b74:	00078863          	beqz	a5,80201b84 <virtio_intr+0x9c>
    80201b78:	00005517          	auipc	a0,0x5
    80201b7c:	6c850513          	addi	a0,a0,1736 # 80207240 <_etext+0x240>
    80201b80:	919fe0ef          	jal	ra,80200498 <panic>
    80201b84:	0000e717          	auipc	a4,0xe
    80201b88:	47c70713          	addi	a4,a4,1148 # 80210000 <disk>
    80201b8c:	fec42783          	lw	a5,-20(s0)
    80201b90:	00278793          	addi	a5,a5,2
    80201b94:	00479793          	slli	a5,a5,0x4
    80201b98:	00f707b3          	add	a5,a4,a5
    80201b9c:	0087b783          	ld	a5,8(a5)
    80201ba0:	fef43023          	sd	a5,-32(s0)
    80201ba4:	fe043783          	ld	a5,-32(s0)
    80201ba8:	0007a223          	sw	zero,4(a5)
    80201bac:	0000e797          	auipc	a5,0xe
    80201bb0:	45478793          	addi	a5,a5,1108 # 80210000 <disk>
    80201bb4:	0207d783          	lhu	a5,32(a5)
    80201bb8:	0017879b          	addiw	a5,a5,1
    80201bbc:	03079713          	slli	a4,a5,0x30
    80201bc0:	03075713          	srli	a4,a4,0x30
    80201bc4:	0000e797          	auipc	a5,0xe
    80201bc8:	43c78793          	addi	a5,a5,1084 # 80210000 <disk>
    80201bcc:	02e79023          	sh	a4,32(a5)
    80201bd0:	0000e797          	auipc	a5,0xe
    80201bd4:	43078793          	addi	a5,a5,1072 # 80210000 <disk>
    80201bd8:	0207d703          	lhu	a4,32(a5)
    80201bdc:	0000e797          	auipc	a5,0xe
    80201be0:	42478793          	addi	a5,a5,1060 # 80210000 <disk>
    80201be4:	0107b783          	ld	a5,16(a5)
    80201be8:	0027d783          	lhu	a5,2(a5)
    80201bec:	0007071b          	sext.w	a4,a4
    80201bf0:	0007879b          	sext.w	a5,a5
    80201bf4:	f2f716e3          	bne	a4,a5,80201b20 <virtio_intr+0x38>
    80201bf8:	00000013          	nop
    80201bfc:	00000013          	nop
    80201c00:	01813083          	ld	ra,24(sp)
    80201c04:	01013403          	ld	s0,16(sp)
    80201c08:	02010113          	addi	sp,sp,32
    80201c0c:	00008067          	ret

0000000080201c10 <init_bin_tree_mem>:
    80201c10:	fe010113          	addi	sp,sp,-32
    80201c14:	00113c23          	sd	ra,24(sp)
    80201c18:	00813823          	sd	s0,16(sp)
    80201c1c:	02010413          	addi	s0,sp,32
    80201c20:	08000793          	li	a5,128
    80201c24:	fef42623          	sw	a5,-20(s0)
    80201c28:	fec42783          	lw	a5,-20(s0)
    80201c2c:	00078593          	mv	a1,a5
    80201c30:	00005517          	auipc	a0,0x5
    80201c34:	62850513          	addi	a0,a0,1576 # 80207258 <_etext+0x258>
    80201c38:	ed0fe0ef          	jal	ra,80200308 <printf>
    80201c3c:	0000b797          	auipc	a5,0xb
    80201c40:	3d478793          	addi	a5,a5,980 # 8020d010 <root_node>
    80201c44:	0007b783          	ld	a5,0(a5)
    80201c48:	00200713          	li	a4,2
    80201c4c:	00e7a023          	sw	a4,0(a5)
    80201c50:	0000b797          	auipc	a5,0xb
    80201c54:	3c078793          	addi	a5,a5,960 # 8020d010 <root_node>
    80201c58:	0007b783          	ld	a5,0(a5)
    80201c5c:	00b00713          	li	a4,11
    80201c60:	00e7a223          	sw	a4,4(a5)
    80201c64:	0000f697          	auipc	a3,0xf
    80201c68:	39c68693          	addi	a3,a3,924 # 80211000 <_free_mem_start>
    80201c6c:	0000b797          	auipc	a5,0xb
    80201c70:	3a478793          	addi	a5,a5,932 # 8020d010 <root_node>
    80201c74:	0007b783          	ld	a5,0(a5)
    80201c78:	00020737          	lui	a4,0x20
    80201c7c:	00e68733          	add	a4,a3,a4
    80201c80:	00e7b423          	sd	a4,8(a5)
    80201c84:	0000b797          	auipc	a5,0xb
    80201c88:	38c78793          	addi	a5,a5,908 # 8020d010 <root_node>
    80201c8c:	0007b783          	ld	a5,0(a5)
    80201c90:	0007b823          	sd	zero,16(a5)
    80201c94:	0000b797          	auipc	a5,0xb
    80201c98:	37c78793          	addi	a5,a5,892 # 8020d010 <root_node>
    80201c9c:	0007b783          	ld	a5,0(a5)
    80201ca0:	0007bc23          	sd	zero,24(a5)
    80201ca4:	0000b797          	auipc	a5,0xb
    80201ca8:	36c78793          	addi	a5,a5,876 # 8020d010 <root_node>
    80201cac:	0007b783          	ld	a5,0(a5)
    80201cb0:	0087b783          	ld	a5,8(a5)
    80201cb4:	00078513          	mv	a0,a5
    80201cb8:	01813083          	ld	ra,24(sp)
    80201cbc:	01013403          	ld	s0,16(sp)
    80201cc0:	02010113          	addi	sp,sp,32
    80201cc4:	00008067          	ret

0000000080201cc8 <unused_buddy_mem>:
    80201cc8:	ff010113          	addi	sp,sp,-16
    80201ccc:	00813423          	sd	s0,8(sp)
    80201cd0:	01010413          	addi	s0,sp,16
    80201cd4:	0000b797          	auipc	a5,0xb
    80201cd8:	34478793          	addi	a5,a5,836 # 8020d018 <nxt_unused_node>
    80201cdc:	0007b783          	ld	a5,0(a5)
    80201ce0:	40078713          	addi	a4,a5,1024
    80201ce4:	0000b797          	auipc	a5,0xb
    80201ce8:	33478793          	addi	a5,a5,820 # 8020d018 <nxt_unused_node>
    80201cec:	00e7b023          	sd	a4,0(a5)
    80201cf0:	0000b797          	auipc	a5,0xb
    80201cf4:	32878793          	addi	a5,a5,808 # 8020d018 <nxt_unused_node>
    80201cf8:	0007b783          	ld	a5,0(a5)
    80201cfc:	00078513          	mv	a0,a5
    80201d00:	00813403          	ld	s0,8(sp)
    80201d04:	01010113          	addi	sp,sp,16
    80201d08:	00008067          	ret

0000000080201d0c <round_size>:
    80201d0c:	fd010113          	addi	sp,sp,-48
    80201d10:	02813423          	sd	s0,40(sp)
    80201d14:	03010413          	addi	s0,sp,48
    80201d18:	00050793          	mv	a5,a0
    80201d1c:	fcf42e23          	sw	a5,-36(s0)
    80201d20:	fe042623          	sw	zero,-20(s0)
    80201d24:	fdc42783          	lw	a5,-36(s0)
    80201d28:	0007871b          	sext.w	a4,a5
    80201d2c:	00100793          	li	a5,1
    80201d30:	02f71263          	bne	a4,a5,80201d54 <round_size+0x48>
    80201d34:	fdc42783          	lw	a5,-36(s0)
    80201d38:	0400006f          	j	80201d78 <round_size+0x6c>
    80201d3c:	fdc42783          	lw	a5,-36(s0)
    80201d40:	0017d79b          	srliw	a5,a5,0x1
    80201d44:	fcf42e23          	sw	a5,-36(s0)
    80201d48:	fec42783          	lw	a5,-20(s0)
    80201d4c:	0017879b          	addiw	a5,a5,1
    80201d50:	fef42623          	sw	a5,-20(s0)
    80201d54:	fdc42783          	lw	a5,-36(s0)
    80201d58:	0007879b          	sext.w	a5,a5
    80201d5c:	fe0790e3          	bnez	a5,80201d3c <round_size+0x30>
    80201d60:	fec42783          	lw	a5,-20(s0)
    80201d64:	00100713          	li	a4,1
    80201d68:	00f717bb          	sllw	a5,a4,a5
    80201d6c:	0007879b          	sext.w	a5,a5
    80201d70:	fcf42e23          	sw	a5,-36(s0)
    80201d74:	fdc42783          	lw	a5,-36(s0)
    80201d78:	00078513          	mv	a0,a5
    80201d7c:	02813403          	ld	s0,40(sp)
    80201d80:	03010113          	addi	sp,sp,48
    80201d84:	00008067          	ret

0000000080201d88 <buddy_alloc>:
    80201d88:	fd010113          	addi	sp,sp,-48
    80201d8c:	02113423          	sd	ra,40(sp)
    80201d90:	02813023          	sd	s0,32(sp)
    80201d94:	03010413          	addi	s0,sp,48
    80201d98:	00050793          	mv	a5,a0
    80201d9c:	fcf42e23          	sw	a5,-36(s0)
    80201da0:	fff00793          	li	a5,-1
    80201da4:	fef43423          	sd	a5,-24(s0)
    80201da8:	fdc42783          	lw	a5,-36(s0)
    80201dac:	0007879b          	sext.w	a5,a5
    80201db0:	00079663          	bnez	a5,80201dbc <buddy_alloc+0x34>
    80201db4:	00000793          	li	a5,0
    80201db8:	07c0006f          	j	80201e34 <buddy_alloc+0xac>
    80201dbc:	fdc42783          	lw	a5,-36(s0)
    80201dc0:	00078513          	mv	a0,a5
    80201dc4:	f49ff0ef          	jal	ra,80201d0c <round_size>
    80201dc8:	00050793          	mv	a5,a0
    80201dcc:	fcf42e23          	sw	a5,-36(s0)
    80201dd0:	fdc42783          	lw	a5,-36(s0)
    80201dd4:	00078593          	mv	a1,a5
    80201dd8:	00005517          	auipc	a0,0x5
    80201ddc:	49050513          	addi	a0,a0,1168 # 80207268 <_etext+0x268>
    80201de0:	d28fe0ef          	jal	ra,80200308 <printf>
    80201de4:	0000b797          	auipc	a5,0xb
    80201de8:	22c78793          	addi	a5,a5,556 # 8020d010 <root_node>
    80201dec:	0007b783          	ld	a5,0(a5)
    80201df0:	0047a783          	lw	a5,4(a5)
    80201df4:	00100713          	li	a4,1
    80201df8:	00f717bb          	sllw	a5,a4,a5
    80201dfc:	fef42223          	sw	a5,-28(s0)
    80201e00:	fe442783          	lw	a5,-28(s0)
    80201e04:	00078593          	mv	a1,a5
    80201e08:	00005517          	auipc	a0,0x5
    80201e0c:	48050513          	addi	a0,a0,1152 # 80207288 <_etext+0x288>
    80201e10:	cf8fe0ef          	jal	ra,80200308 <printf>
    80201e14:	fe442703          	lw	a4,-28(s0)
    80201e18:	fdc42783          	lw	a5,-36(s0)
    80201e1c:	0007071b          	sext.w	a4,a4
    80201e20:	0007879b          	sext.w	a5,a5
    80201e24:	00f75663          	bge	a4,a5,80201e30 <buddy_alloc+0xa8>
    80201e28:	fff00793          	li	a5,-1
    80201e2c:	0080006f          	j	80201e34 <buddy_alloc+0xac>
    80201e30:	fe843783          	ld	a5,-24(s0)
    80201e34:	00078513          	mv	a0,a5
    80201e38:	02813083          	ld	ra,40(sp)
    80201e3c:	02013403          	ld	s0,32(sp)
    80201e40:	03010113          	addi	sp,sp,48
    80201e44:	00008067          	ret

0000000080201e48 <new_pipe>:
    80201e48:	fd010113          	addi	sp,sp,-48
    80201e4c:	02113423          	sd	ra,40(sp)
    80201e50:	02813023          	sd	s0,32(sp)
    80201e54:	03010413          	addi	s0,sp,48
    80201e58:	fca43c23          	sd	a0,-40(s0)
    80201e5c:	fcb43823          	sd	a1,-48(s0)
    80201e60:	fe043423          	sd	zero,-24(s0)
    80201e64:	16c010ef          	jal	ra,80202fd0 <file_alloc>
    80201e68:	00050713          	mv	a4,a0
    80201e6c:	fd843783          	ld	a5,-40(s0)
    80201e70:	00e7b023          	sd	a4,0(a5)
    80201e74:	15c010ef          	jal	ra,80202fd0 <file_alloc>
    80201e78:	00050713          	mv	a4,a0
    80201e7c:	fd043783          	ld	a5,-48(s0)
    80201e80:	00e7b023          	sd	a4,0(a5)
    80201e84:	fd843783          	ld	a5,-40(s0)
    80201e88:	00078663          	beqz	a5,80201e94 <new_pipe+0x4c>
    80201e8c:	fd043783          	ld	a5,-48(s0)
    80201e90:	00079c63          	bnez	a5,80201ea8 <new_pipe+0x60>
    80201e94:	00005517          	auipc	a0,0x5
    80201e98:	41450513          	addi	a0,a0,1044 # 802072a8 <_etext+0x2a8>
    80201e9c:	c6cfe0ef          	jal	ra,80200308 <printf>
    80201ea0:	fff00793          	li	a5,-1
    80201ea4:	0dc0006f          	j	80201f80 <new_pipe+0x138>
    80201ea8:	a59fe0ef          	jal	ra,80200900 <kalloc>
    80201eac:	fea43423          	sd	a0,-24(s0)
    80201eb0:	00001637          	lui	a2,0x1
    80201eb4:	00000593          	li	a1,0
    80201eb8:	fe843503          	ld	a0,-24(s0)
    80201ebc:	0d4020ef          	jal	ra,80203f90 <memset>
    80201ec0:	fe843783          	ld	a5,-24(s0)
    80201ec4:	00079c63          	bnez	a5,80201edc <new_pipe+0x94>
    80201ec8:	00005517          	auipc	a0,0x5
    80201ecc:	3f850513          	addi	a0,a0,1016 # 802072c0 <_etext+0x2c0>
    80201ed0:	c38fe0ef          	jal	ra,80200308 <printf>
    80201ed4:	fff00793          	li	a5,-1
    80201ed8:	0a80006f          	j	80201f80 <new_pipe+0x138>
    80201edc:	fe843783          	ld	a5,-24(s0)
    80201ee0:	00100713          	li	a4,1
    80201ee4:	06e7a823          	sw	a4,112(a5)
    80201ee8:	fe843783          	ld	a5,-24(s0)
    80201eec:	00100713          	li	a4,1
    80201ef0:	06e7aa23          	sw	a4,116(a5)
    80201ef4:	fe843783          	ld	a5,-24(s0)
    80201ef8:	0607a423          	sw	zero,104(a5)
    80201efc:	fe843783          	ld	a5,-24(s0)
    80201f00:	0607a623          	sw	zero,108(a5)
    80201f04:	fd843783          	ld	a5,-40(s0)
    80201f08:	0007b783          	ld	a5,0(a5)
    80201f0c:	00100713          	li	a4,1
    80201f10:	00e7a023          	sw	a4,0(a5)
    80201f14:	fd843783          	ld	a5,-40(s0)
    80201f18:	0007b783          	ld	a5,0(a5)
    80201f1c:	00100713          	li	a4,1
    80201f20:	00e78423          	sb	a4,8(a5)
    80201f24:	fd843783          	ld	a5,-40(s0)
    80201f28:	0007b783          	ld	a5,0(a5)
    80201f2c:	000784a3          	sb	zero,9(a5)
    80201f30:	fd843783          	ld	a5,-40(s0)
    80201f34:	0007b783          	ld	a5,0(a5)
    80201f38:	fe843703          	ld	a4,-24(s0)
    80201f3c:	00e7bc23          	sd	a4,24(a5)
    80201f40:	fd043783          	ld	a5,-48(s0)
    80201f44:	0007b783          	ld	a5,0(a5)
    80201f48:	00100713          	li	a4,1
    80201f4c:	00e7a023          	sw	a4,0(a5)
    80201f50:	fd043783          	ld	a5,-48(s0)
    80201f54:	0007b783          	ld	a5,0(a5)
    80201f58:	00078423          	sb	zero,8(a5)
    80201f5c:	fd043783          	ld	a5,-48(s0)
    80201f60:	0007b783          	ld	a5,0(a5)
    80201f64:	00100713          	li	a4,1
    80201f68:	00e784a3          	sb	a4,9(a5)
    80201f6c:	fd043783          	ld	a5,-48(s0)
    80201f70:	0007b783          	ld	a5,0(a5)
    80201f74:	fe843703          	ld	a4,-24(s0)
    80201f78:	00e7bc23          	sd	a4,24(a5)
    80201f7c:	00000793          	li	a5,0
    80201f80:	00078513          	mv	a0,a5
    80201f84:	02813083          	ld	ra,40(sp)
    80201f88:	02013403          	ld	s0,32(sp)
    80201f8c:	03010113          	addi	sp,sp,48
    80201f90:	00008067          	ret

0000000080201f94 <pipe_wr>:
    80201f94:	fc010113          	addi	sp,sp,-64
    80201f98:	02113c23          	sd	ra,56(sp)
    80201f9c:	02813823          	sd	s0,48(sp)
    80201fa0:	04010413          	addi	s0,sp,64
    80201fa4:	fca43c23          	sd	a0,-40(s0)
    80201fa8:	fcb43823          	sd	a1,-48(s0)
    80201fac:	00060793          	mv	a5,a2
    80201fb0:	fcf42623          	sw	a5,-52(s0)
    80201fb4:	fe042623          	sw	zero,-20(s0)
    80201fb8:	fd843783          	ld	a5,-40(s0)
    80201fbc:	00078513          	mv	a0,a5
    80201fc0:	278010ef          	jal	ra,80203238 <acquire>
    80201fc4:	fd843783          	ld	a5,-40(s0)
    80201fc8:	06c7a783          	lw	a5,108(a5)
    80201fcc:	06079663          	bnez	a5,80202038 <pipe_wr+0xa4>
    80201fd0:	0000b797          	auipc	a5,0xb
    80201fd4:	05078793          	addi	a5,a5,80 # 8020d020 <proc_ptr>
    80201fd8:	0007b783          	ld	a5,0(a5)
    80201fdc:	0087b703          	ld	a4,8(a5)
    80201fe0:	fd843783          	ld	a5,-40(s0)
    80201fe4:	00478793          	addi	a5,a5,4
    80201fe8:	fd043603          	ld	a2,-48(s0)
    80201fec:	fcc42683          	lw	a3,-52(s0)
    80201ff0:	00078593          	mv	a1,a5
    80201ff4:	00070513          	mv	a0,a4
    80201ff8:	da5fe0ef          	jal	ra,80200d9c <copy_from_user>
    80201ffc:	fd843783          	ld	a5,-40(s0)
    80202000:	fcc42703          	lw	a4,-52(s0)
    80202004:	06e7a623          	sw	a4,108(a5)
    80202008:	fd843783          	ld	a5,-40(s0)
    8020200c:	06878793          	addi	a5,a5,104
    80202010:	00078513          	mv	a0,a5
    80202014:	6bd010ef          	jal	ra,80203ed0 <wakeup>
    80202018:	fd843783          	ld	a5,-40(s0)
    8020201c:	00078513          	mv	a0,a5
    80202020:	254010ef          	jal	ra,80203274 <release>
    80202024:	00000013          	nop
    80202028:	fec42783          	lw	a5,-20(s0)
    8020202c:	0007879b          	sext.w	a5,a5
    80202030:	02078c63          	beqz	a5,80202068 <pipe_wr+0xd4>
    80202034:	0280006f          	j	8020205c <pipe_wr+0xc8>
    80202038:	fd843783          	ld	a5,-40(s0)
    8020203c:	06c78793          	addi	a5,a5,108
    80202040:	fd843703          	ld	a4,-40(s0)
    80202044:	00070593          	mv	a1,a4
    80202048:	00078513          	mv	a0,a5
    8020204c:	61d010ef          	jal	ra,80203e68 <sleep>
    80202050:	00100793          	li	a5,1
    80202054:	fef42623          	sw	a5,-20(s0)
    80202058:	f6dff06f          	j	80201fc4 <pipe_wr+0x30>
    8020205c:	fd843783          	ld	a5,-40(s0)
    80202060:	00078513          	mv	a0,a5
    80202064:	210010ef          	jal	ra,80203274 <release>
    80202068:	00000793          	li	a5,0
    8020206c:	00078513          	mv	a0,a5
    80202070:	03813083          	ld	ra,56(sp)
    80202074:	03013403          	ld	s0,48(sp)
    80202078:	04010113          	addi	sp,sp,64
    8020207c:	00008067          	ret

0000000080202080 <pipe_rd>:
    80202080:	fc010113          	addi	sp,sp,-64
    80202084:	02113c23          	sd	ra,56(sp)
    80202088:	02813823          	sd	s0,48(sp)
    8020208c:	04010413          	addi	s0,sp,64
    80202090:	fca43c23          	sd	a0,-40(s0)
    80202094:	fcb43823          	sd	a1,-48(s0)
    80202098:	00060793          	mv	a5,a2
    8020209c:	fcf42623          	sw	a5,-52(s0)
    802020a0:	fe042623          	sw	zero,-20(s0)
    802020a4:	fd843783          	ld	a5,-40(s0)
    802020a8:	00078513          	mv	a0,a5
    802020ac:	18c010ef          	jal	ra,80203238 <acquire>
    802020b0:	fd843783          	ld	a5,-40(s0)
    802020b4:	06c7a783          	lw	a5,108(a5)
    802020b8:	06078463          	beqz	a5,80202120 <pipe_rd+0xa0>
    802020bc:	0000b797          	auipc	a5,0xb
    802020c0:	f6478793          	addi	a5,a5,-156 # 8020d020 <proc_ptr>
    802020c4:	0007b783          	ld	a5,0(a5)
    802020c8:	0087b703          	ld	a4,8(a5)
    802020cc:	fd043583          	ld	a1,-48(s0)
    802020d0:	fd843783          	ld	a5,-40(s0)
    802020d4:	00478793          	addi	a5,a5,4
    802020d8:	fcc42683          	lw	a3,-52(s0)
    802020dc:	00078613          	mv	a2,a5
    802020e0:	00070513          	mv	a0,a4
    802020e4:	dc9fe0ef          	jal	ra,80200eac <copy_to_user>
    802020e8:	fd843783          	ld	a5,-40(s0)
    802020ec:	0607a623          	sw	zero,108(a5)
    802020f0:	fd843783          	ld	a5,-40(s0)
    802020f4:	06c78793          	addi	a5,a5,108
    802020f8:	00078513          	mv	a0,a5
    802020fc:	5d5010ef          	jal	ra,80203ed0 <wakeup>
    80202100:	fd843783          	ld	a5,-40(s0)
    80202104:	00078513          	mv	a0,a5
    80202108:	16c010ef          	jal	ra,80203274 <release>
    8020210c:	00000013          	nop
    80202110:	fec42783          	lw	a5,-20(s0)
    80202114:	0007879b          	sext.w	a5,a5
    80202118:	02078c63          	beqz	a5,80202150 <pipe_rd+0xd0>
    8020211c:	0280006f          	j	80202144 <pipe_rd+0xc4>
    80202120:	fd843783          	ld	a5,-40(s0)
    80202124:	06878793          	addi	a5,a5,104
    80202128:	fd843703          	ld	a4,-40(s0)
    8020212c:	00070593          	mv	a1,a4
    80202130:	00078513          	mv	a0,a5
    80202134:	535010ef          	jal	ra,80203e68 <sleep>
    80202138:	00100793          	li	a5,1
    8020213c:	fef42623          	sw	a5,-20(s0)
    80202140:	f71ff06f          	j	802020b0 <pipe_rd+0x30>
    80202144:	fd843783          	ld	a5,-40(s0)
    80202148:	00078513          	mv	a0,a5
    8020214c:	128010ef          	jal	ra,80203274 <release>
    80202150:	00000793          	li	a5,0
    80202154:	00078513          	mv	a0,a5
    80202158:	03813083          	ld	ra,56(sp)
    8020215c:	03013403          	ld	s0,48(sp)
    80202160:	04010113          	addi	sp,sp,64
    80202164:	00008067          	ret

0000000080202168 <r_sstatus>:
    80202168:	fe010113          	addi	sp,sp,-32
    8020216c:	00813c23          	sd	s0,24(sp)
    80202170:	02010413          	addi	s0,sp,32
    80202174:	100027f3          	csrr	a5,sstatus
    80202178:	fef43423          	sd	a5,-24(s0)
    8020217c:	fe843783          	ld	a5,-24(s0)
    80202180:	00078513          	mv	a0,a5
    80202184:	01813403          	ld	s0,24(sp)
    80202188:	02010113          	addi	sp,sp,32
    8020218c:	00008067          	ret

0000000080202190 <r_scause>:
    80202190:	fe010113          	addi	sp,sp,-32
    80202194:	00813c23          	sd	s0,24(sp)
    80202198:	02010413          	addi	s0,sp,32
    8020219c:	142027f3          	csrr	a5,scause
    802021a0:	fef43423          	sd	a5,-24(s0)
    802021a4:	fe843783          	ld	a5,-24(s0)
    802021a8:	00078513          	mv	a0,a5
    802021ac:	01813403          	ld	s0,24(sp)
    802021b0:	02010113          	addi	sp,sp,32
    802021b4:	00008067          	ret

00000000802021b8 <w_sepc>:
    802021b8:	fe010113          	addi	sp,sp,-32
    802021bc:	00813c23          	sd	s0,24(sp)
    802021c0:	02010413          	addi	s0,sp,32
    802021c4:	fea43423          	sd	a0,-24(s0)
    802021c8:	fe843783          	ld	a5,-24(s0)
    802021cc:	14179073          	csrw	sepc,a5
    802021d0:	00000013          	nop
    802021d4:	01813403          	ld	s0,24(sp)
    802021d8:	02010113          	addi	sp,sp,32
    802021dc:	00008067          	ret

00000000802021e0 <r_sepc>:
    802021e0:	fe010113          	addi	sp,sp,-32
    802021e4:	00813c23          	sd	s0,24(sp)
    802021e8:	02010413          	addi	s0,sp,32
    802021ec:	141027f3          	csrr	a5,sepc
    802021f0:	fef43423          	sd	a5,-24(s0)
    802021f4:	fe843783          	ld	a5,-24(s0)
    802021f8:	00078513          	mv	a0,a5
    802021fc:	01813403          	ld	s0,24(sp)
    80202200:	02010113          	addi	sp,sp,32
    80202204:	00008067          	ret

0000000080202208 <w_sstatus>:
    80202208:	fe010113          	addi	sp,sp,-32
    8020220c:	00813c23          	sd	s0,24(sp)
    80202210:	02010413          	addi	s0,sp,32
    80202214:	fea43423          	sd	a0,-24(s0)
    80202218:	fe843783          	ld	a5,-24(s0)
    8020221c:	10079073          	csrw	sstatus,a5
    80202220:	00000013          	nop
    80202224:	01813403          	ld	s0,24(sp)
    80202228:	02010113          	addi	sp,sp,32
    8020222c:	00008067          	ret

0000000080202230 <w_stvec>:
    80202230:	fe010113          	addi	sp,sp,-32
    80202234:	00813c23          	sd	s0,24(sp)
    80202238:	02010413          	addi	s0,sp,32
    8020223c:	fea43423          	sd	a0,-24(s0)
    80202240:	fe843783          	ld	a5,-24(s0)
    80202244:	10579073          	csrw	stvec,a5
    80202248:	00000013          	nop
    8020224c:	01813403          	ld	s0,24(sp)
    80202250:	02010113          	addi	sp,sp,32
    80202254:	00008067          	ret

0000000080202258 <w_sie>:
    80202258:	fe010113          	addi	sp,sp,-32
    8020225c:	00813c23          	sd	s0,24(sp)
    80202260:	02010413          	addi	s0,sp,32
    80202264:	fea43423          	sd	a0,-24(s0)
    80202268:	fe843783          	ld	a5,-24(s0)
    8020226c:	10479073          	csrw	sie,a5
    80202270:	00000013          	nop
    80202274:	01813403          	ld	s0,24(sp)
    80202278:	02010113          	addi	sp,sp,32
    8020227c:	00008067          	ret

0000000080202280 <w_sip>:
    80202280:	fe010113          	addi	sp,sp,-32
    80202284:	00813c23          	sd	s0,24(sp)
    80202288:	02010413          	addi	s0,sp,32
    8020228c:	fea43423          	sd	a0,-24(s0)
    80202290:	fe843783          	ld	a5,-24(s0)
    80202294:	14479073          	csrw	sip,a5
    80202298:	00000013          	nop
    8020229c:	01813403          	ld	s0,24(sp)
    802022a0:	02010113          	addi	sp,sp,32
    802022a4:	00008067          	ret

00000000802022a8 <r_sie>:
    802022a8:	fe010113          	addi	sp,sp,-32
    802022ac:	00813c23          	sd	s0,24(sp)
    802022b0:	02010413          	addi	s0,sp,32
    802022b4:	104027f3          	csrr	a5,sie
    802022b8:	fef43423          	sd	a5,-24(s0)
    802022bc:	fe843783          	ld	a5,-24(s0)
    802022c0:	00078513          	mv	a0,a5
    802022c4:	01813403          	ld	s0,24(sp)
    802022c8:	02010113          	addi	sp,sp,32
    802022cc:	00008067          	ret

00000000802022d0 <r_sip>:
    802022d0:	fe010113          	addi	sp,sp,-32
    802022d4:	00813c23          	sd	s0,24(sp)
    802022d8:	02010413          	addi	s0,sp,32
    802022dc:	144027f3          	csrr	a5,sip
    802022e0:	fef43423          	sd	a5,-24(s0)
    802022e4:	fe843783          	ld	a5,-24(s0)
    802022e8:	00078513          	mv	a0,a5
    802022ec:	01813403          	ld	s0,24(sp)
    802022f0:	02010113          	addi	sp,sp,32
    802022f4:	00008067          	ret

00000000802022f8 <intr_off>:
    802022f8:	ff010113          	addi	sp,sp,-16
    802022fc:	00113423          	sd	ra,8(sp)
    80202300:	00813023          	sd	s0,0(sp)
    80202304:	01010413          	addi	s0,sp,16
    80202308:	e61ff0ef          	jal	ra,80202168 <r_sstatus>
    8020230c:	00050793          	mv	a5,a0
    80202310:	ffd7f793          	andi	a5,a5,-3
    80202314:	00078513          	mv	a0,a5
    80202318:	ef1ff0ef          	jal	ra,80202208 <w_sstatus>
    8020231c:	00000013          	nop
    80202320:	00813083          	ld	ra,8(sp)
    80202324:	00013403          	ld	s0,0(sp)
    80202328:	01010113          	addi	sp,sp,16
    8020232c:	00008067          	ret

0000000080202330 <intr_on>:
    80202330:	ff010113          	addi	sp,sp,-16
    80202334:	00113423          	sd	ra,8(sp)
    80202338:	00813023          	sd	s0,0(sp)
    8020233c:	01010413          	addi	s0,sp,16
    80202340:	e29ff0ef          	jal	ra,80202168 <r_sstatus>
    80202344:	00050793          	mv	a5,a0
    80202348:	0027e793          	ori	a5,a5,2
    8020234c:	00078513          	mv	a0,a5
    80202350:	eb9ff0ef          	jal	ra,80202208 <w_sstatus>
    80202354:	00000013          	nop
    80202358:	00813083          	ld	ra,8(sp)
    8020235c:	00013403          	ld	s0,0(sp)
    80202360:	01010113          	addi	sp,sp,16
    80202364:	00008067          	ret

0000000080202368 <src_trap_init>:
    80202368:	ff010113          	addi	sp,sp,-16
    8020236c:	00113423          	sd	ra,8(sp)
    80202370:	00813023          	sd	s0,0(sp)
    80202374:	01010413          	addi	s0,sp,16
    80202378:	00003797          	auipc	a5,0x3
    8020237c:	b5478793          	addi	a5,a5,-1196 # 80204ecc <smode_exeception_vec>
    80202380:	00078513          	mv	a0,a5
    80202384:	eadff0ef          	jal	ra,80202230 <w_stvec>
    80202388:	00200513          	li	a0,2
    8020238c:	ecdff0ef          	jal	ra,80202258 <w_sie>
    80202390:	f19ff0ef          	jal	ra,802022a8 <r_sie>
    80202394:	00050793          	mv	a5,a0
    80202398:	2007e793          	ori	a5,a5,512
    8020239c:	00078513          	mv	a0,a5
    802023a0:	eb9ff0ef          	jal	ra,80202258 <w_sie>
    802023a4:	00200513          	li	a0,2
    802023a8:	e61ff0ef          	jal	ra,80202208 <w_sstatus>
    802023ac:	00000013          	nop
    802023b0:	00813083          	ld	ra,8(sp)
    802023b4:	00013403          	ld	s0,0(sp)
    802023b8:	01010113          	addi	sp,sp,16
    802023bc:	00008067          	ret

00000000802023c0 <smode_exeception_handler>:
    802023c0:	fd010113          	addi	sp,sp,-48
    802023c4:	02113423          	sd	ra,40(sp)
    802023c8:	02813023          	sd	s0,32(sp)
    802023cc:	03010413          	addi	s0,sp,48
    802023d0:	fca43c23          	sd	a0,-40(s0)
    802023d4:	fcb43823          	sd	a1,-48(s0)
    802023d8:	fe042623          	sw	zero,-20(s0)
    802023dc:	fd043783          	ld	a5,-48(s0)
    802023e0:	0407c863          	bltz	a5,80202430 <smode_exeception_handler+0x70>
    802023e4:	fd043583          	ld	a1,-48(s0)
    802023e8:	00005517          	auipc	a0,0x5
    802023ec:	17050513          	addi	a0,a0,368 # 80207558 <fault_info+0x100>
    802023f0:	f19fd0ef          	jal	ra,80200308 <printf>
    802023f4:	00005717          	auipc	a4,0x5
    802023f8:	06470713          	addi	a4,a4,100 # 80207458 <fault_info>
    802023fc:	fd043783          	ld	a5,-48(s0)
    80202400:	00479793          	slli	a5,a5,0x4
    80202404:	00f707b3          	add	a5,a4,a5
    80202408:	0087b783          	ld	a5,8(a5)
    8020240c:	00078513          	mv	a0,a5
    80202410:	ef9fd0ef          	jal	ra,80200308 <printf>
    80202414:	fd843503          	ld	a0,-40(s0)
    80202418:	12c000ef          	jal	ra,80202544 <show_regs>
    8020241c:	599000ef          	jal	ra,802031b4 <back_trace>
    80202420:	00005517          	auipc	a0,0x5
    80202424:	15050513          	addi	a0,a0,336 # 80207570 <fault_info+0x118>
    80202428:	870fe0ef          	jal	ra,80200498 <panic>
    8020242c:	1040006f          	j	80202530 <smode_exeception_handler+0x170>
    80202430:	fd043703          	ld	a4,-48(s0)
    80202434:	fff00793          	li	a5,-1
    80202438:	03f79793          	slli	a5,a5,0x3f
    8020243c:	00f707b3          	add	a5,a4,a5
    80202440:	00100713          	li	a4,1
    80202444:	00e78863          	beq	a5,a4,80202454 <smode_exeception_handler+0x94>
    80202448:	00900713          	li	a4,9
    8020244c:	06e78263          	beq	a5,a4,802024b0 <smode_exeception_handler+0xf0>
    80202450:	0d00006f          	j	80202520 <smode_exeception_handler+0x160>
    80202454:	e7dff0ef          	jal	ra,802022d0 <r_sip>
    80202458:	00050793          	mv	a5,a0
    8020245c:	ffd7f793          	andi	a5,a5,-3
    80202460:	00078513          	mv	a0,a5
    80202464:	e1dff0ef          	jal	ra,80202280 <w_sip>
    80202468:	0000e517          	auipc	a0,0xe
    8020246c:	cd050513          	addi	a0,a0,-816 # 80210138 <systicks_lock>
    80202470:	5c9000ef          	jal	ra,80203238 <acquire>
    80202474:	0000e797          	auipc	a5,0xe
    80202478:	cbc78793          	addi	a5,a5,-836 # 80210130 <systicks>
    8020247c:	0007b783          	ld	a5,0(a5)
    80202480:	00178713          	addi	a4,a5,1
    80202484:	0000e797          	auipc	a5,0xe
    80202488:	cac78793          	addi	a5,a5,-852 # 80210130 <systicks>
    8020248c:	00e7b023          	sd	a4,0(a5)
    80202490:	0000e517          	auipc	a0,0xe
    80202494:	ca850513          	addi	a0,a0,-856 # 80210138 <systicks_lock>
    80202498:	5dd000ef          	jal	ra,80203274 <release>
    8020249c:	0000e517          	auipc	a0,0xe
    802024a0:	c9450513          	addi	a0,a0,-876 # 80210130 <systicks>
    802024a4:	22d010ef          	jal	ra,80203ed0 <wakeup>
    802024a8:	57c000ef          	jal	ra,80202a24 <back_to_kernel>
    802024ac:	0840006f          	j	80202530 <smode_exeception_handler+0x170>
    802024b0:	791000ef          	jal	ra,80203440 <plic_claim>
    802024b4:	00050793          	mv	a5,a0
    802024b8:	fef42623          	sw	a5,-20(s0)
    802024bc:	fec42783          	lw	a5,-20(s0)
    802024c0:	0007871b          	sext.w	a4,a5
    802024c4:	00a00793          	li	a5,10
    802024c8:	00f71c63          	bne	a4,a5,802024e0 <smode_exeception_handler+0x120>
    802024cc:	685000ef          	jal	ra,80203350 <uart_rd_char>
    802024d0:	00005517          	auipc	a0,0x5
    802024d4:	0a850513          	addi	a0,a0,168 # 80207578 <fault_info+0x120>
    802024d8:	e31fd0ef          	jal	ra,80200308 <printf>
    802024dc:	0180006f          	j	802024f4 <smode_exeception_handler+0x134>
    802024e0:	fec42783          	lw	a5,-20(s0)
    802024e4:	0007871b          	sext.w	a4,a5
    802024e8:	00100793          	li	a5,1
    802024ec:	00f71463          	bne	a4,a5,802024f4 <smode_exeception_handler+0x134>
    802024f0:	df8ff0ef          	jal	ra,80201ae8 <virtio_intr>
    802024f4:	fec42783          	lw	a5,-20(s0)
    802024f8:	0007879b          	sext.w	a5,a5
    802024fc:	00078a63          	beqz	a5,80202510 <smode_exeception_handler+0x150>
    80202500:	fec42783          	lw	a5,-20(s0)
    80202504:	00078513          	mv	a0,a5
    80202508:	781000ef          	jal	ra,80203488 <plic_complete>
    8020250c:	0240006f          	j	80202530 <smode_exeception_handler+0x170>
    80202510:	00005517          	auipc	a0,0x5
    80202514:	07850513          	addi	a0,a0,120 # 80207588 <fault_info+0x130>
    80202518:	f81fd0ef          	jal	ra,80200498 <panic>
    8020251c:	0140006f          	j	80202530 <smode_exeception_handler+0x170>
    80202520:	00005517          	auipc	a0,0x5
    80202524:	07850513          	addi	a0,a0,120 # 80207598 <fault_info+0x140>
    80202528:	de1fd0ef          	jal	ra,80200308 <printf>
    8020252c:	00000013          	nop
    80202530:	00000013          	nop
    80202534:	02813083          	ld	ra,40(sp)
    80202538:	02013403          	ld	s0,32(sp)
    8020253c:	03010113          	addi	sp,sp,48
    80202540:	00008067          	ret

0000000080202544 <show_regs>:
    80202544:	fe010113          	addi	sp,sp,-32
    80202548:	00113c23          	sd	ra,24(sp)
    8020254c:	00813823          	sd	s0,16(sp)
    80202550:	02010413          	addi	s0,sp,32
    80202554:	fea43423          	sd	a0,-24(s0)
    80202558:	fe843783          	ld	a5,-24(s0)
    8020255c:	0007b703          	ld	a4,0(a5)
    80202560:	fe843783          	ld	a5,-24(s0)
    80202564:	0087b603          	ld	a2,8(a5)
    80202568:	fe843783          	ld	a5,-24(s0)
    8020256c:	0107b783          	ld	a5,16(a5)
    80202570:	00078693          	mv	a3,a5
    80202574:	00070593          	mv	a1,a4
    80202578:	00005517          	auipc	a0,0x5
    8020257c:	03050513          	addi	a0,a0,48 # 802075a8 <fault_info+0x150>
    80202580:	d89fd0ef          	jal	ra,80200308 <printf>
    80202584:	fe843783          	ld	a5,-24(s0)
    80202588:	0187b703          	ld	a4,24(a5)
    8020258c:	fe843783          	ld	a5,-24(s0)
    80202590:	0207b603          	ld	a2,32(a5)
    80202594:	fe843783          	ld	a5,-24(s0)
    80202598:	0287b783          	ld	a5,40(a5)
    8020259c:	00078693          	mv	a3,a5
    802025a0:	00070593          	mv	a1,a4
    802025a4:	00005517          	auipc	a0,0x5
    802025a8:	01c50513          	addi	a0,a0,28 # 802075c0 <fault_info+0x168>
    802025ac:	d5dfd0ef          	jal	ra,80200308 <printf>
    802025b0:	fe843783          	ld	a5,-24(s0)
    802025b4:	0307b703          	ld	a4,48(a5)
    802025b8:	fe843783          	ld	a5,-24(s0)
    802025bc:	0387b603          	ld	a2,56(a5)
    802025c0:	fe843783          	ld	a5,-24(s0)
    802025c4:	0907b783          	ld	a5,144(a5)
    802025c8:	00078693          	mv	a3,a5
    802025cc:	00070593          	mv	a1,a4
    802025d0:	00005517          	auipc	a0,0x5
    802025d4:	00850513          	addi	a0,a0,8 # 802075d8 <fault_info+0x180>
    802025d8:	d31fd0ef          	jal	ra,80200308 <printf>
    802025dc:	fe843783          	ld	a5,-24(s0)
    802025e0:	0187b703          	ld	a4,24(a5)
    802025e4:	fe843783          	ld	a5,-24(s0)
    802025e8:	0207b603          	ld	a2,32(a5)
    802025ec:	fe843783          	ld	a5,-24(s0)
    802025f0:	0287b783          	ld	a5,40(a5)
    802025f4:	00078693          	mv	a3,a5
    802025f8:	00070593          	mv	a1,a4
    802025fc:	00005517          	auipc	a0,0x5
    80202600:	fc450513          	addi	a0,a0,-60 # 802075c0 <fault_info+0x168>
    80202604:	d05fd0ef          	jal	ra,80200308 <printf>
    80202608:	00000013          	nop
    8020260c:	01813083          	ld	ra,24(sp)
    80202610:	01013403          	ld	s0,16(sp)
    80202614:	02010113          	addi	sp,sp,32
    80202618:	00008067          	ret

000000008020261c <user_trap>:
    8020261c:	fc010113          	addi	sp,sp,-64
    80202620:	02113c23          	sd	ra,56(sp)
    80202624:	02813823          	sd	s0,48(sp)
    80202628:	02913423          	sd	s1,40(sp)
    8020262c:	04010413          	addi	s0,sp,64
    80202630:	fc042e23          	sw	zero,-36(s0)
    80202634:	0000b797          	auipc	a5,0xb
    80202638:	9ec78793          	addi	a5,a5,-1556 # 8020d020 <proc_ptr>
    8020263c:	0007b783          	ld	a5,0(a5)
    80202640:	0107b783          	ld	a5,16(a5)
    80202644:	0a87b783          	ld	a5,168(a5)
    80202648:	fcf42c23          	sw	a5,-40(s0)
    8020264c:	b45ff0ef          	jal	ra,80202190 <r_scause>
    80202650:	fca43823          	sd	a0,-48(s0)
    80202654:	00003797          	auipc	a5,0x3
    80202658:	87878793          	addi	a5,a5,-1928 # 80204ecc <smode_exeception_vec>
    8020265c:	00078513          	mv	a0,a5
    80202660:	bd1ff0ef          	jal	ra,80202230 <w_stvec>
    80202664:	fd043703          	ld	a4,-48(s0)
    80202668:	00800793          	li	a5,8
    8020266c:	06f71063          	bne	a4,a5,802026cc <user_trap+0xb0>
    80202670:	b71ff0ef          	jal	ra,802021e0 <r_sepc>
    80202674:	00050713          	mv	a4,a0
    80202678:	0000b797          	auipc	a5,0xb
    8020267c:	9a878793          	addi	a5,a5,-1624 # 8020d020 <proc_ptr>
    80202680:	0007b783          	ld	a5,0(a5)
    80202684:	0107b783          	ld	a5,16(a5)
    80202688:	00470713          	addi	a4,a4,4
    8020268c:	00e7bc23          	sd	a4,24(a5)
    80202690:	ca1ff0ef          	jal	ra,80202330 <intr_on>
    80202694:	00006717          	auipc	a4,0x6
    80202698:	96c70713          	addi	a4,a4,-1684 # 80208000 <syscall>
    8020269c:	fd842783          	lw	a5,-40(s0)
    802026a0:	00379793          	slli	a5,a5,0x3
    802026a4:	00f707b3          	add	a5,a4,a5
    802026a8:	0007b703          	ld	a4,0(a5)
    802026ac:	0000b797          	auipc	a5,0xb
    802026b0:	97478793          	addi	a5,a5,-1676 # 8020d020 <proc_ptr>
    802026b4:	0007b783          	ld	a5,0(a5)
    802026b8:	0107b483          	ld	s1,16(a5)
    802026bc:	000700e7          	jalr	a4
    802026c0:	00050793          	mv	a5,a0
    802026c4:	06f4b823          	sd	a5,112(s1)
    802026c8:	1e00006f          	j	802028a8 <user_trap+0x28c>
    802026cc:	fd043703          	ld	a4,-48(s0)
    802026d0:	fff00793          	li	a5,-1
    802026d4:	03f79793          	slli	a5,a5,0x3f
    802026d8:	00178793          	addi	a5,a5,1
    802026dc:	06f71e63          	bne	a4,a5,80202758 <user_trap+0x13c>
    802026e0:	0000b797          	auipc	a5,0xb
    802026e4:	94078793          	addi	a5,a5,-1728 # 8020d020 <proc_ptr>
    802026e8:	0007b783          	ld	a5,0(a5)
    802026ec:	0107b483          	ld	s1,16(a5)
    802026f0:	af1ff0ef          	jal	ra,802021e0 <r_sepc>
    802026f4:	00050793          	mv	a5,a0
    802026f8:	00f4bc23          	sd	a5,24(s1)
    802026fc:	bd5ff0ef          	jal	ra,802022d0 <r_sip>
    80202700:	00050793          	mv	a5,a0
    80202704:	ffd7f793          	andi	a5,a5,-3
    80202708:	00078513          	mv	a0,a5
    8020270c:	b75ff0ef          	jal	ra,80202280 <w_sip>
    80202710:	0000e517          	auipc	a0,0xe
    80202714:	a2850513          	addi	a0,a0,-1496 # 80210138 <systicks_lock>
    80202718:	321000ef          	jal	ra,80203238 <acquire>
    8020271c:	0000e797          	auipc	a5,0xe
    80202720:	a1478793          	addi	a5,a5,-1516 # 80210130 <systicks>
    80202724:	0007b783          	ld	a5,0(a5)
    80202728:	00178713          	addi	a4,a5,1
    8020272c:	0000e797          	auipc	a5,0xe
    80202730:	a0478793          	addi	a5,a5,-1532 # 80210130 <systicks>
    80202734:	00e7b023          	sd	a4,0(a5)
    80202738:	0000e517          	auipc	a0,0xe
    8020273c:	a0050513          	addi	a0,a0,-1536 # 80210138 <systicks_lock>
    80202740:	335000ef          	jal	ra,80203274 <release>
    80202744:	0000e517          	auipc	a0,0xe
    80202748:	9ec50513          	addi	a0,a0,-1556 # 80210130 <systicks>
    8020274c:	784010ef          	jal	ra,80203ed0 <wakeup>
    80202750:	2d4000ef          	jal	ra,80202a24 <back_to_kernel>
    80202754:	1540006f          	j	802028a8 <user_trap+0x28c>
    80202758:	fd043703          	ld	a4,-48(s0)
    8020275c:	fff00793          	li	a5,-1
    80202760:	03f79793          	slli	a5,a5,0x3f
    80202764:	00978793          	addi	a5,a5,9
    80202768:	06f71863          	bne	a4,a5,802027d8 <user_trap+0x1bc>
    8020276c:	0000b797          	auipc	a5,0xb
    80202770:	8b478793          	addi	a5,a5,-1868 # 8020d020 <proc_ptr>
    80202774:	0007b783          	ld	a5,0(a5)
    80202778:	0107b483          	ld	s1,16(a5)
    8020277c:	a65ff0ef          	jal	ra,802021e0 <r_sepc>
    80202780:	00050793          	mv	a5,a0
    80202784:	00f4bc23          	sd	a5,24(s1)
    80202788:	4b9000ef          	jal	ra,80203440 <plic_claim>
    8020278c:	00050793          	mv	a5,a0
    80202790:	fcf42e23          	sw	a5,-36(s0)
    80202794:	fdc42783          	lw	a5,-36(s0)
    80202798:	0007871b          	sext.w	a4,a5
    8020279c:	00a00793          	li	a5,10
    802027a0:	00f71e63          	bne	a4,a5,802027bc <user_trap+0x1a0>
    802027a4:	3ad000ef          	jal	ra,80203350 <uart_rd_char>
    802027a8:	00050793          	mv	a5,a0
    802027ac:	fcf407a3          	sb	a5,-49(s0)
    802027b0:	fcf44783          	lbu	a5,-49(s0)
    802027b4:	00078513          	mv	a0,a5
    802027b8:	2ed000ef          	jal	ra,802032a4 <uart_send_c>
    802027bc:	fdc42783          	lw	a5,-36(s0)
    802027c0:	0007879b          	sext.w	a5,a5
    802027c4:	0e078263          	beqz	a5,802028a8 <user_trap+0x28c>
    802027c8:	fdc42783          	lw	a5,-36(s0)
    802027cc:	00078513          	mv	a0,a5
    802027d0:	4b9000ef          	jal	ra,80203488 <plic_complete>
    802027d4:	0d40006f          	j	802028a8 <user_trap+0x28c>
    802027d8:	fd043583          	ld	a1,-48(s0)
    802027dc:	00005517          	auipc	a0,0x5
    802027e0:	e1450513          	addi	a0,a0,-492 # 802075f0 <fault_info+0x198>
    802027e4:	b25fd0ef          	jal	ra,80200308 <printf>
    802027e8:	9f9ff0ef          	jal	ra,802021e0 <r_sepc>
    802027ec:	00050793          	mv	a5,a0
    802027f0:	00078593          	mv	a1,a5
    802027f4:	00005517          	auipc	a0,0x5
    802027f8:	e2450513          	addi	a0,a0,-476 # 80207618 <fault_info+0x1c0>
    802027fc:	b0dfd0ef          	jal	ra,80200308 <printf>
    80202800:	0000b797          	auipc	a5,0xb
    80202804:	82078793          	addi	a5,a5,-2016 # 8020d020 <proc_ptr>
    80202808:	0007b783          	ld	a5,0(a5)
    8020280c:	0107b783          	ld	a5,16(a5)
    80202810:	0287b783          	ld	a5,40(a5)
    80202814:	00078593          	mv	a1,a5
    80202818:	00005517          	auipc	a0,0x5
    8020281c:	e1850513          	addi	a0,a0,-488 # 80207630 <fault_info+0x1d8>
    80202820:	ae9fd0ef          	jal	ra,80200308 <printf>
    80202824:	0000a797          	auipc	a5,0xa
    80202828:	7fc78793          	addi	a5,a5,2044 # 8020d020 <proc_ptr>
    8020282c:	0007b783          	ld	a5,0(a5)
    80202830:	0107b783          	ld	a5,16(a5)
    80202834:	0307b783          	ld	a5,48(a5)
    80202838:	00078593          	mv	a1,a5
    8020283c:	00005517          	auipc	a0,0x5
    80202840:	e0450513          	addi	a0,a0,-508 # 80207640 <fault_info+0x1e8>
    80202844:	ac5fd0ef          	jal	ra,80200308 <printf>
    80202848:	0000a797          	auipc	a5,0xa
    8020284c:	7d878793          	addi	a5,a5,2008 # 8020d020 <proc_ptr>
    80202850:	0007b783          	ld	a5,0(a5)
    80202854:	00078593          	mv	a1,a5
    80202858:	00005517          	auipc	a0,0x5
    8020285c:	df850513          	addi	a0,a0,-520 # 80207650 <fault_info+0x1f8>
    80202860:	aa9fd0ef          	jal	ra,80200308 <printf>
    80202864:	0000e597          	auipc	a1,0xe
    80202868:	c6458593          	addi	a1,a1,-924 # 802104c8 <proc_list>
    8020286c:	00005517          	auipc	a0,0x5
    80202870:	df450513          	addi	a0,a0,-524 # 80207660 <fault_info+0x208>
    80202874:	a95fd0ef          	jal	ra,80200308 <printf>
    80202878:	919ff0ef          	jal	ra,80202190 <r_scause>
    8020287c:	00050793          	mv	a5,a0
    80202880:	00005717          	auipc	a4,0x5
    80202884:	bd870713          	addi	a4,a4,-1064 # 80207458 <fault_info>
    80202888:	00479793          	slli	a5,a5,0x4
    8020288c:	00f707b3          	add	a5,a4,a5
    80202890:	0087b783          	ld	a5,8(a5)
    80202894:	00078513          	mv	a0,a5
    80202898:	a71fd0ef          	jal	ra,80200308 <printf>
    8020289c:	00005517          	auipc	a0,0x5
    802028a0:	ddc50513          	addi	a0,a0,-548 # 80207678 <fault_info+0x220>
    802028a4:	bf5fd0ef          	jal	ra,80200498 <panic>
    802028a8:	01c000ef          	jal	ra,802028c4 <user_trap_ret>
    802028ac:	00000013          	nop
    802028b0:	03813083          	ld	ra,56(sp)
    802028b4:	03013403          	ld	s0,48(sp)
    802028b8:	02813483          	ld	s1,40(sp)
    802028bc:	04010113          	addi	sp,sp,64
    802028c0:	00008067          	ret

00000000802028c4 <user_trap_ret>:
    802028c4:	fd010113          	addi	sp,sp,-48
    802028c8:	02113423          	sd	ra,40(sp)
    802028cc:	02813023          	sd	s0,32(sp)
    802028d0:	03010413          	addi	s0,sp,48
    802028d4:	a25ff0ef          	jal	ra,802022f8 <intr_off>
    802028d8:	00003717          	auipc	a4,0x3
    802028dc:	72870713          	addi	a4,a4,1832 # 80206000 <_trampoline>
    802028e0:	00003797          	auipc	a5,0x3
    802028e4:	72078793          	addi	a5,a5,1824 # 80206000 <_trampoline>
    802028e8:	40f70733          	sub	a4,a4,a5
    802028ec:	040007b7          	lui	a5,0x4000
    802028f0:	fff78793          	addi	a5,a5,-1 # 3ffffff <_start-0x7c200001>
    802028f4:	00c79793          	slli	a5,a5,0xc
    802028f8:	00f707b3          	add	a5,a4,a5
    802028fc:	fef43423          	sd	a5,-24(s0)
    80202900:	fe843503          	ld	a0,-24(s0)
    80202904:	92dff0ef          	jal	ra,80202230 <w_stvec>
    80202908:	861ff0ef          	jal	ra,80202168 <r_sstatus>
    8020290c:	fea43023          	sd	a0,-32(s0)
    80202910:	fe043783          	ld	a5,-32(s0)
    80202914:	eff7f793          	andi	a5,a5,-257
    80202918:	fef43023          	sd	a5,-32(s0)
    8020291c:	fe043783          	ld	a5,-32(s0)
    80202920:	0207e793          	ori	a5,a5,32
    80202924:	fef43023          	sd	a5,-32(s0)
    80202928:	0000b797          	auipc	a5,0xb
    8020292c:	6d878793          	addi	a5,a5,1752 # 8020e000 <_pgt_start>
    80202930:	00c7d693          	srli	a3,a5,0xc
    80202934:	0000a797          	auipc	a5,0xa
    80202938:	6ec78793          	addi	a5,a5,1772 # 8020d020 <proc_ptr>
    8020293c:	0007b783          	ld	a5,0(a5)
    80202940:	0107b783          	ld	a5,16(a5)
    80202944:	fff00713          	li	a4,-1
    80202948:	03f71713          	slli	a4,a4,0x3f
    8020294c:	00e6e733          	or	a4,a3,a4
    80202950:	00e7b023          	sd	a4,0(a5)
    80202954:	0000a797          	auipc	a5,0xa
    80202958:	6cc78793          	addi	a5,a5,1740 # 8020d020 <proc_ptr>
    8020295c:	0007b783          	ld	a5,0(a5)
    80202960:	0107b783          	ld	a5,16(a5)
    80202964:	00000717          	auipc	a4,0x0
    80202968:	cb870713          	addi	a4,a4,-840 # 8020261c <user_trap>
    8020296c:	00e7b823          	sd	a4,16(a5)
    80202970:	0000a797          	auipc	a5,0xa
    80202974:	6b078793          	addi	a5,a5,1712 # 8020d020 <proc_ptr>
    80202978:	0007b783          	ld	a5,0(a5)
    8020297c:	0007b703          	ld	a4,0(a5)
    80202980:	0000a797          	auipc	a5,0xa
    80202984:	6a078793          	addi	a5,a5,1696 # 8020d020 <proc_ptr>
    80202988:	0007b783          	ld	a5,0(a5)
    8020298c:	0107b783          	ld	a5,16(a5)
    80202990:	00e7b423          	sd	a4,8(a5)
    80202994:	fe043503          	ld	a0,-32(s0)
    80202998:	871ff0ef          	jal	ra,80202208 <w_sstatus>
    8020299c:	0000a797          	auipc	a5,0xa
    802029a0:	68478793          	addi	a5,a5,1668 # 8020d020 <proc_ptr>
    802029a4:	0007b783          	ld	a5,0(a5)
    802029a8:	0107b783          	ld	a5,16(a5)
    802029ac:	0187b783          	ld	a5,24(a5)
    802029b0:	00078513          	mv	a0,a5
    802029b4:	805ff0ef          	jal	ra,802021b8 <w_sepc>
    802029b8:	0000a797          	auipc	a5,0xa
    802029bc:	66878793          	addi	a5,a5,1640 # 8020d020 <proc_ptr>
    802029c0:	0007b783          	ld	a5,0(a5)
    802029c4:	0087b783          	ld	a5,8(a5)
    802029c8:	00c7d713          	srli	a4,a5,0xc
    802029cc:	fff00793          	li	a5,-1
    802029d0:	03f79793          	slli	a5,a5,0x3f
    802029d4:	00f767b3          	or	a5,a4,a5
    802029d8:	fcf43c23          	sd	a5,-40(s0)
    802029dc:	00003717          	auipc	a4,0x3
    802029e0:	6d470713          	addi	a4,a4,1748 # 802060b0 <userret>
    802029e4:	00003797          	auipc	a5,0x3
    802029e8:	61c78793          	addi	a5,a5,1564 # 80206000 <_trampoline>
    802029ec:	40f70733          	sub	a4,a4,a5
    802029f0:	040007b7          	lui	a5,0x4000
    802029f4:	fff78793          	addi	a5,a5,-1 # 3ffffff <_start-0x7c200001>
    802029f8:	00c79793          	slli	a5,a5,0xc
    802029fc:	00f707b3          	add	a5,a4,a5
    80202a00:	fcf43823          	sd	a5,-48(s0)
    80202a04:	fd043783          	ld	a5,-48(s0)
    80202a08:	fd843503          	ld	a0,-40(s0)
    80202a0c:	000780e7          	jalr	a5
    80202a10:	00000013          	nop
    80202a14:	02813083          	ld	ra,40(sp)
    80202a18:	02013403          	ld	s0,32(sp)
    80202a1c:	03010113          	addi	sp,sp,48
    80202a20:	00008067          	ret

0000000080202a24 <back_to_kernel>:
    80202a24:	ff010113          	addi	sp,sp,-16
    80202a28:	00113423          	sd	ra,8(sp)
    80202a2c:	00813023          	sd	s0,0(sp)
    80202a30:	01010413          	addi	s0,sp,16
    80202a34:	0000a797          	auipc	a5,0xa
    80202a38:	5ec78793          	addi	a5,a5,1516 # 8020d020 <proc_ptr>
    80202a3c:	0007b783          	ld	a5,0(a5)
    80202a40:	00200713          	li	a4,2
    80202a44:	08e7aa23          	sw	a4,148(a5)
    80202a48:	0000a797          	auipc	a5,0xa
    80202a4c:	5d878793          	addi	a5,a5,1496 # 8020d020 <proc_ptr>
    80202a50:	0007b783          	ld	a5,0(a5)
    80202a54:	01878793          	addi	a5,a5,24
    80202a58:	0000e597          	auipc	a1,0xe
    80202a5c:	48858593          	addi	a1,a1,1160 # 80210ee0 <kernel_ctxt+0x18>
    80202a60:	00078513          	mv	a0,a5
    80202a64:	3f4020ef          	jal	ra,80204e58 <swtch>
    80202a68:	00000013          	nop
    80202a6c:	00813083          	ld	ra,8(sp)
    80202a70:	00013403          	ld	s0,0(sp)
    80202a74:	01010113          	addi	sp,sp,16
    80202a78:	00008067          	ret

0000000080202a7c <sys_print>:
    80202a7c:	fe010113          	addi	sp,sp,-32
    80202a80:	00113c23          	sd	ra,24(sp)
    80202a84:	00813823          	sd	s0,16(sp)
    80202a88:	02010413          	addi	s0,sp,32
    80202a8c:	0000a797          	auipc	a5,0xa
    80202a90:	59478793          	addi	a5,a5,1428 # 8020d020 <proc_ptr>
    80202a94:	0007b783          	ld	a5,0(a5)
    80202a98:	0107b783          	ld	a5,16(a5)
    80202a9c:	0707b783          	ld	a5,112(a5)
    80202aa0:	fef407a3          	sb	a5,-17(s0)
    80202aa4:	fef44783          	lbu	a5,-17(s0)
    80202aa8:	00078513          	mv	a0,a5
    80202aac:	7f8000ef          	jal	ra,802032a4 <uart_send_c>
    80202ab0:	00000793          	li	a5,0
    80202ab4:	00078513          	mv	a0,a5
    80202ab8:	01813083          	ld	ra,24(sp)
    80202abc:	01013403          	ld	s0,16(sp)
    80202ac0:	02010113          	addi	sp,sp,32
    80202ac4:	00008067          	ret

0000000080202ac8 <sys_fork>:
    80202ac8:	ff010113          	addi	sp,sp,-16
    80202acc:	00113423          	sd	ra,8(sp)
    80202ad0:	00813023          	sd	s0,0(sp)
    80202ad4:	01010413          	addi	s0,sp,16
    80202ad8:	70d000ef          	jal	ra,802039e4 <fork>
    80202adc:	00050793          	mv	a5,a0
    80202ae0:	00078513          	mv	a0,a5
    80202ae4:	00813083          	ld	ra,8(sp)
    80202ae8:	00013403          	ld	s0,0(sp)
    80202aec:	01010113          	addi	sp,sp,16
    80202af0:	00008067          	ret

0000000080202af4 <sys_exec>:
    80202af4:	fe010113          	addi	sp,sp,-32
    80202af8:	00113c23          	sd	ra,24(sp)
    80202afc:	00813823          	sd	s0,16(sp)
    80202b00:	02010413          	addi	s0,sp,32
    80202b04:	00005797          	auipc	a5,0x5
    80202b08:	b7c78793          	addi	a5,a5,-1156 # 80207680 <fault_info+0x228>
    80202b0c:	fef43423          	sd	a5,-24(s0)
    80202b10:	00000593          	li	a1,0
    80202b14:	fe843503          	ld	a0,-24(s0)
    80202b18:	d18fd0ef          	jal	ra,80200030 <exec>
    80202b1c:	00050793          	mv	a5,a0
    80202b20:	00078513          	mv	a0,a5
    80202b24:	01813083          	ld	ra,24(sp)
    80202b28:	01013403          	ld	s0,16(sp)
    80202b2c:	02010113          	addi	sp,sp,32
    80202b30:	00008067          	ret

0000000080202b34 <sys_sleep>:
    80202b34:	fe010113          	addi	sp,sp,-32
    80202b38:	00113c23          	sd	ra,24(sp)
    80202b3c:	00813823          	sd	s0,16(sp)
    80202b40:	02010413          	addi	s0,sp,32
    80202b44:	0000a797          	auipc	a5,0xa
    80202b48:	4dc78793          	addi	a5,a5,1244 # 8020d020 <proc_ptr>
    80202b4c:	0007b783          	ld	a5,0(a5)
    80202b50:	0107b783          	ld	a5,16(a5)
    80202b54:	0707b783          	ld	a5,112(a5)
    80202b58:	fef42623          	sw	a5,-20(s0)
    80202b5c:	0000d517          	auipc	a0,0xd
    80202b60:	5dc50513          	addi	a0,a0,1500 # 80210138 <systicks_lock>
    80202b64:	6d4000ef          	jal	ra,80203238 <acquire>
    80202b68:	0000d797          	auipc	a5,0xd
    80202b6c:	5c878793          	addi	a5,a5,1480 # 80210130 <systicks>
    80202b70:	0007b783          	ld	a5,0(a5)
    80202b74:	fef43023          	sd	a5,-32(s0)
    80202b78:	0180006f          	j	80202b90 <sys_sleep+0x5c>
    80202b7c:	0000d597          	auipc	a1,0xd
    80202b80:	5bc58593          	addi	a1,a1,1468 # 80210138 <systicks_lock>
    80202b84:	0000d517          	auipc	a0,0xd
    80202b88:	5ac50513          	addi	a0,a0,1452 # 80210130 <systicks>
    80202b8c:	2dc010ef          	jal	ra,80203e68 <sleep>
    80202b90:	0000d797          	auipc	a5,0xd
    80202b94:	5a078793          	addi	a5,a5,1440 # 80210130 <systicks>
    80202b98:	0007b703          	ld	a4,0(a5)
    80202b9c:	fe043783          	ld	a5,-32(s0)
    80202ba0:	40f70733          	sub	a4,a4,a5
    80202ba4:	fec42783          	lw	a5,-20(s0)
    80202ba8:	fcf76ae3          	bltu	a4,a5,80202b7c <sys_sleep+0x48>
    80202bac:	0000d517          	auipc	a0,0xd
    80202bb0:	58c50513          	addi	a0,a0,1420 # 80210138 <systicks_lock>
    80202bb4:	6c0000ef          	jal	ra,80203274 <release>
    80202bb8:	00000793          	li	a5,0
    80202bbc:	00078513          	mv	a0,a5
    80202bc0:	01813083          	ld	ra,24(sp)
    80202bc4:	01013403          	ld	s0,16(sp)
    80202bc8:	02010113          	addi	sp,sp,32
    80202bcc:	00008067          	ret

0000000080202bd0 <sys_pipe>:
    80202bd0:	fd010113          	addi	sp,sp,-48
    80202bd4:	02113423          	sd	ra,40(sp)
    80202bd8:	02813023          	sd	s0,32(sp)
    80202bdc:	03010413          	addi	s0,sp,48
    80202be0:	0000a797          	auipc	a5,0xa
    80202be4:	44078793          	addi	a5,a5,1088 # 8020d020 <proc_ptr>
    80202be8:	0007b783          	ld	a5,0(a5)
    80202bec:	0107b783          	ld	a5,16(a5)
    80202bf0:	0707b783          	ld	a5,112(a5)
    80202bf4:	fef43423          	sd	a5,-24(s0)
    80202bf8:	fd840713          	addi	a4,s0,-40
    80202bfc:	fe040793          	addi	a5,s0,-32
    80202c00:	00070593          	mv	a1,a4
    80202c04:	00078513          	mv	a0,a5
    80202c08:	a40ff0ef          	jal	ra,80201e48 <new_pipe>
    80202c0c:	fc043823          	sd	zero,-48(s0)
    80202c10:	fe043783          	ld	a5,-32(s0)
    80202c14:	00078513          	mv	a0,a5
    80202c18:	504000ef          	jal	ra,8020311c <fd_alloc>
    80202c1c:	00050793          	mv	a5,a0
    80202c20:	fcf42823          	sw	a5,-48(s0)
    80202c24:	fd843783          	ld	a5,-40(s0)
    80202c28:	00078513          	mv	a0,a5
    80202c2c:	4f0000ef          	jal	ra,8020311c <fd_alloc>
    80202c30:	00050793          	mv	a5,a0
    80202c34:	fcf42a23          	sw	a5,-44(s0)
    80202c38:	fd042783          	lw	a5,-48(s0)
    80202c3c:	00078713          	mv	a4,a5
    80202c40:	fff00793          	li	a5,-1
    80202c44:	00f70a63          	beq	a4,a5,80202c58 <sys_pipe+0x88>
    80202c48:	fd442783          	lw	a5,-44(s0)
    80202c4c:	00078713          	mv	a4,a5
    80202c50:	fff00793          	li	a5,-1
    80202c54:	00f71663          	bne	a4,a5,80202c60 <sys_pipe+0x90>
    80202c58:	fff00793          	li	a5,-1
    80202c5c:	0300006f          	j	80202c8c <sys_pipe+0xbc>
    80202c60:	0000a797          	auipc	a5,0xa
    80202c64:	3c078793          	addi	a5,a5,960 # 8020d020 <proc_ptr>
    80202c68:	0007b783          	ld	a5,0(a5)
    80202c6c:	0087b783          	ld	a5,8(a5)
    80202c70:	fe843703          	ld	a4,-24(s0)
    80202c74:	fd040613          	addi	a2,s0,-48
    80202c78:	00800693          	li	a3,8
    80202c7c:	00070593          	mv	a1,a4
    80202c80:	00078513          	mv	a0,a5
    80202c84:	a28fe0ef          	jal	ra,80200eac <copy_to_user>
    80202c88:	00000793          	li	a5,0
    80202c8c:	00078513          	mv	a0,a5
    80202c90:	02813083          	ld	ra,40(sp)
    80202c94:	02013403          	ld	s0,32(sp)
    80202c98:	03010113          	addi	sp,sp,48
    80202c9c:	00008067          	ret

0000000080202ca0 <sys_write>:
    80202ca0:	fd010113          	addi	sp,sp,-48
    80202ca4:	02113423          	sd	ra,40(sp)
    80202ca8:	02813023          	sd	s0,32(sp)
    80202cac:	03010413          	addi	s0,sp,48
    80202cb0:	0000a797          	auipc	a5,0xa
    80202cb4:	37078793          	addi	a5,a5,880 # 8020d020 <proc_ptr>
    80202cb8:	0007b783          	ld	a5,0(a5)
    80202cbc:	0107b783          	ld	a5,16(a5)
    80202cc0:	0707b783          	ld	a5,112(a5)
    80202cc4:	fef42623          	sw	a5,-20(s0)
    80202cc8:	0000a797          	auipc	a5,0xa
    80202ccc:	35878793          	addi	a5,a5,856 # 8020d020 <proc_ptr>
    80202cd0:	0007b783          	ld	a5,0(a5)
    80202cd4:	0107b783          	ld	a5,16(a5)
    80202cd8:	0787b783          	ld	a5,120(a5)
    80202cdc:	fef43023          	sd	a5,-32(s0)
    80202ce0:	0000a797          	auipc	a5,0xa
    80202ce4:	34078793          	addi	a5,a5,832 # 8020d020 <proc_ptr>
    80202ce8:	0007b783          	ld	a5,0(a5)
    80202cec:	0107b783          	ld	a5,16(a5)
    80202cf0:	0807b783          	ld	a5,128(a5)
    80202cf4:	fcf42e23          	sw	a5,-36(s0)
    80202cf8:	0000a797          	auipc	a5,0xa
    80202cfc:	32878793          	addi	a5,a5,808 # 8020d020 <proc_ptr>
    80202d00:	0007b703          	ld	a4,0(a5)
    80202d04:	fec42783          	lw	a5,-20(s0)
    80202d08:	01678793          	addi	a5,a5,22
    80202d0c:	00379793          	slli	a5,a5,0x3
    80202d10:	00f707b3          	add	a5,a4,a5
    80202d14:	0007b783          	ld	a5,0(a5)
    80202d18:	fcf43823          	sd	a5,-48(s0)
    80202d1c:	fd043783          	ld	a5,-48(s0)
    80202d20:	0007a783          	lw	a5,0(a5)
    80202d24:	00078713          	mv	a4,a5
    80202d28:	00100793          	li	a5,1
    80202d2c:	02f71263          	bne	a4,a5,80202d50 <sys_write+0xb0>
    80202d30:	fd043783          	ld	a5,-48(s0)
    80202d34:	0187b783          	ld	a5,24(a5)
    80202d38:	fdc42703          	lw	a4,-36(s0)
    80202d3c:	00070613          	mv	a2,a4
    80202d40:	fe043583          	ld	a1,-32(s0)
    80202d44:	00078513          	mv	a0,a5
    80202d48:	a4cff0ef          	jal	ra,80201f94 <pipe_wr>
    80202d4c:	04c0006f          	j	80202d98 <sys_write+0xf8>
    80202d50:	fd043783          	ld	a5,-48(s0)
    80202d54:	0107b503          	ld	a0,16(a5)
    80202d58:	fd043783          	ld	a5,-48(s0)
    80202d5c:	0207a783          	lw	a5,32(a5)
    80202d60:	02079793          	slli	a5,a5,0x20
    80202d64:	0207d793          	srli	a5,a5,0x20
    80202d68:	fdc42683          	lw	a3,-36(s0)
    80202d6c:	00000713          	li	a4,0
    80202d70:	00078613          	mv	a2,a5
    80202d74:	fe043583          	ld	a1,-32(s0)
    80202d78:	6a9010ef          	jal	ra,80204c20 <write_to_inode>
    80202d7c:	fd043783          	ld	a5,-48(s0)
    80202d80:	0207a703          	lw	a4,32(a5)
    80202d84:	fdc42783          	lw	a5,-36(s0)
    80202d88:	00f707bb          	addw	a5,a4,a5
    80202d8c:	0007871b          	sext.w	a4,a5
    80202d90:	fd043783          	ld	a5,-48(s0)
    80202d94:	02e7a023          	sw	a4,32(a5)
    80202d98:	00000793          	li	a5,0
    80202d9c:	00078513          	mv	a0,a5
    80202da0:	02813083          	ld	ra,40(sp)
    80202da4:	02013403          	ld	s0,32(sp)
    80202da8:	03010113          	addi	sp,sp,48
    80202dac:	00008067          	ret

0000000080202db0 <sys_read>:
    80202db0:	fd010113          	addi	sp,sp,-48
    80202db4:	02113423          	sd	ra,40(sp)
    80202db8:	02813023          	sd	s0,32(sp)
    80202dbc:	03010413          	addi	s0,sp,48
    80202dc0:	0000a797          	auipc	a5,0xa
    80202dc4:	26078793          	addi	a5,a5,608 # 8020d020 <proc_ptr>
    80202dc8:	0007b783          	ld	a5,0(a5)
    80202dcc:	0107b783          	ld	a5,16(a5)
    80202dd0:	0707b783          	ld	a5,112(a5)
    80202dd4:	fef42623          	sw	a5,-20(s0)
    80202dd8:	0000a797          	auipc	a5,0xa
    80202ddc:	24878793          	addi	a5,a5,584 # 8020d020 <proc_ptr>
    80202de0:	0007b783          	ld	a5,0(a5)
    80202de4:	0107b783          	ld	a5,16(a5)
    80202de8:	0787b783          	ld	a5,120(a5)
    80202dec:	fef43023          	sd	a5,-32(s0)
    80202df0:	0000a797          	auipc	a5,0xa
    80202df4:	23078793          	addi	a5,a5,560 # 8020d020 <proc_ptr>
    80202df8:	0007b783          	ld	a5,0(a5)
    80202dfc:	0107b783          	ld	a5,16(a5)
    80202e00:	0807b783          	ld	a5,128(a5)
    80202e04:	fcf42e23          	sw	a5,-36(s0)
    80202e08:	0000a797          	auipc	a5,0xa
    80202e0c:	21878793          	addi	a5,a5,536 # 8020d020 <proc_ptr>
    80202e10:	0007b703          	ld	a4,0(a5)
    80202e14:	fec42783          	lw	a5,-20(s0)
    80202e18:	01678793          	addi	a5,a5,22
    80202e1c:	00379793          	slli	a5,a5,0x3
    80202e20:	00f707b3          	add	a5,a4,a5
    80202e24:	0007b783          	ld	a5,0(a5)
    80202e28:	fcf43823          	sd	a5,-48(s0)
    80202e2c:	fd043783          	ld	a5,-48(s0)
    80202e30:	0007a783          	lw	a5,0(a5)
    80202e34:	00078713          	mv	a4,a5
    80202e38:	00100793          	li	a5,1
    80202e3c:	02f71263          	bne	a4,a5,80202e60 <sys_read+0xb0>
    80202e40:	fd043783          	ld	a5,-48(s0)
    80202e44:	0187b783          	ld	a5,24(a5)
    80202e48:	fdc42703          	lw	a4,-36(s0)
    80202e4c:	00070613          	mv	a2,a4
    80202e50:	fe043583          	ld	a1,-32(s0)
    80202e54:	00078513          	mv	a0,a5
    80202e58:	a28ff0ef          	jal	ra,80202080 <pipe_rd>
    80202e5c:	0600006f          	j	80202ebc <sys_read+0x10c>
    80202e60:	fd043783          	ld	a5,-48(s0)
    80202e64:	0007a783          	lw	a5,0(a5)
    80202e68:	00078713          	mv	a4,a5
    80202e6c:	00200793          	li	a5,2
    80202e70:	04f71663          	bne	a4,a5,80202ebc <sys_read+0x10c>
    80202e74:	fd043783          	ld	a5,-48(s0)
    80202e78:	0107b503          	ld	a0,16(a5)
    80202e7c:	fd043783          	ld	a5,-48(s0)
    80202e80:	0207a783          	lw	a5,32(a5)
    80202e84:	02079793          	slli	a5,a5,0x20
    80202e88:	0207d793          	srli	a5,a5,0x20
    80202e8c:	fdc42683          	lw	a3,-36(s0)
    80202e90:	00100713          	li	a4,1
    80202e94:	00078613          	mv	a2,a5
    80202e98:	fe043583          	ld	a1,-32(s0)
    80202e9c:	3d9010ef          	jal	ra,80204a74 <read_from_inode>
    80202ea0:	fd043783          	ld	a5,-48(s0)
    80202ea4:	0207a703          	lw	a4,32(a5)
    80202ea8:	fdc42783          	lw	a5,-36(s0)
    80202eac:	00f707bb          	addw	a5,a4,a5
    80202eb0:	0007871b          	sext.w	a4,a5
    80202eb4:	fd043783          	ld	a5,-48(s0)
    80202eb8:	02e7a023          	sw	a4,32(a5)
    80202ebc:	00000793          	li	a5,0
    80202ec0:	00078513          	mv	a0,a5
    80202ec4:	02813083          	ld	ra,40(sp)
    80202ec8:	02013403          	ld	s0,32(sp)
    80202ecc:	03010113          	addi	sp,sp,48
    80202ed0:	00008067          	ret

0000000080202ed4 <sys_open>:
    80202ed4:	e3010113          	addi	sp,sp,-464
    80202ed8:	1c113423          	sd	ra,456(sp)
    80202edc:	1c813023          	sd	s0,448(sp)
    80202ee0:	1d010413          	addi	s0,sp,464
    80202ee4:	0000a797          	auipc	a5,0xa
    80202ee8:	13c78793          	addi	a5,a5,316 # 8020d020 <proc_ptr>
    80202eec:	0007b783          	ld	a5,0(a5)
    80202ef0:	0107b783          	ld	a5,16(a5)
    80202ef4:	0707b783          	ld	a5,112(a5)
    80202ef8:	fef43423          	sd	a5,-24(s0)
    80202efc:	0000a797          	auipc	a5,0xa
    80202f00:	12478793          	addi	a5,a5,292 # 8020d020 <proc_ptr>
    80202f04:	0007b783          	ld	a5,0(a5)
    80202f08:	0107b783          	ld	a5,16(a5)
    80202f0c:	0787b783          	ld	a5,120(a5)
    80202f10:	fef42223          	sw	a5,-28(s0)
    80202f14:	9edfd0ef          	jal	ra,80200900 <kalloc>
    80202f18:	fca43c23          	sd	a0,-40(s0)
    80202f1c:	e3840793          	addi	a5,s0,-456
    80202f20:	19000713          	li	a4,400
    80202f24:	00070613          	mv	a2,a4
    80202f28:	00000593          	li	a1,0
    80202f2c:	00078513          	mv	a0,a5
    80202f30:	060010ef          	jal	ra,80203f90 <memset>
    80202f34:	0000a797          	auipc	a5,0xa
    80202f38:	0ec78793          	addi	a5,a5,236 # 8020d020 <proc_ptr>
    80202f3c:	0007b783          	ld	a5,0(a5)
    80202f40:	0087b783          	ld	a5,8(a5)
    80202f44:	e3840713          	addi	a4,s0,-456
    80202f48:	00d00693          	li	a3,13
    80202f4c:	fe843603          	ld	a2,-24(s0)
    80202f50:	00070593          	mv	a1,a4
    80202f54:	00078513          	mv	a0,a5
    80202f58:	e45fd0ef          	jal	ra,80200d9c <copy_from_user>
    80202f5c:	e3840793          	addi	a5,s0,-456
    80202f60:	fd843583          	ld	a1,-40(s0)
    80202f64:	00078513          	mv	a0,a5
    80202f68:	674010ef          	jal	ra,802045dc <get_inode>
    80202f6c:	064000ef          	jal	ra,80202fd0 <file_alloc>
    80202f70:	fca43823          	sd	a0,-48(s0)
    80202f74:	fd043503          	ld	a0,-48(s0)
    80202f78:	1a4000ef          	jal	ra,8020311c <fd_alloc>
    80202f7c:	00050793          	mv	a5,a0
    80202f80:	fcf42623          	sw	a5,-52(s0)
    80202f84:	fd843783          	ld	a5,-40(s0)
    80202f88:	01079783          	lh	a5,16(a5)
    80202f8c:	0007871b          	sext.w	a4,a5
    80202f90:	00200793          	li	a5,2
    80202f94:	00f71c63          	bne	a4,a5,80202fac <sys_open+0xd8>
    80202f98:	fd043783          	ld	a5,-48(s0)
    80202f9c:	00200713          	li	a4,2
    80202fa0:	00e7a023          	sw	a4,0(a5)
    80202fa4:	fd043783          	ld	a5,-48(s0)
    80202fa8:	0207a023          	sw	zero,32(a5)
    80202fac:	fd043783          	ld	a5,-48(s0)
    80202fb0:	fd843703          	ld	a4,-40(s0)
    80202fb4:	00e7b823          	sd	a4,16(a5)
    80202fb8:	fcc42783          	lw	a5,-52(s0)
    80202fbc:	00078513          	mv	a0,a5
    80202fc0:	1c813083          	ld	ra,456(sp)
    80202fc4:	1c013403          	ld	s0,448(sp)
    80202fc8:	1d010113          	addi	sp,sp,464
    80202fcc:	00008067          	ret

0000000080202fd0 <file_alloc>:
    80202fd0:	fe010113          	addi	sp,sp,-32
    80202fd4:	00813c23          	sd	s0,24(sp)
    80202fd8:	02010413          	addi	s0,sp,32
    80202fdc:	fe042623          	sw	zero,-20(s0)
    80202fe0:	0880006f          	j	80203068 <file_alloc+0x98>
    80202fe4:	0000d697          	auipc	a3,0xd
    80202fe8:	1c468693          	addi	a3,a3,452 # 802101a8 <ftable>
    80202fec:	fec42703          	lw	a4,-20(s0)
    80202ff0:	00070793          	mv	a5,a4
    80202ff4:	00279793          	slli	a5,a5,0x2
    80202ff8:	00e787b3          	add	a5,a5,a4
    80202ffc:	00379793          	slli	a5,a5,0x3
    80203000:	00f687b3          	add	a5,a3,a5
    80203004:	0047a783          	lw	a5,4(a5)
    80203008:	04079a63          	bnez	a5,8020305c <file_alloc+0x8c>
    8020300c:	0000d697          	auipc	a3,0xd
    80203010:	19c68693          	addi	a3,a3,412 # 802101a8 <ftable>
    80203014:	fec42703          	lw	a4,-20(s0)
    80203018:	00070793          	mv	a5,a4
    8020301c:	00279793          	slli	a5,a5,0x2
    80203020:	00e787b3          	add	a5,a5,a4
    80203024:	00379793          	slli	a5,a5,0x3
    80203028:	00f687b3          	add	a5,a3,a5
    8020302c:	00100713          	li	a4,1
    80203030:	00e7a223          	sw	a4,4(a5)
    80203034:	fec42703          	lw	a4,-20(s0)
    80203038:	00070793          	mv	a5,a4
    8020303c:	00279793          	slli	a5,a5,0x2
    80203040:	00e787b3          	add	a5,a5,a4
    80203044:	00379793          	slli	a5,a5,0x3
    80203048:	00078713          	mv	a4,a5
    8020304c:	0000d797          	auipc	a5,0xd
    80203050:	15c78793          	addi	a5,a5,348 # 802101a8 <ftable>
    80203054:	00f707b3          	add	a5,a4,a5
    80203058:	0240006f          	j	8020307c <file_alloc+0xac>
    8020305c:	fec42783          	lw	a5,-20(s0)
    80203060:	0017879b          	addiw	a5,a5,1
    80203064:	fef42623          	sw	a5,-20(s0)
    80203068:	fec42783          	lw	a5,-20(s0)
    8020306c:	0007871b          	sext.w	a4,a5
    80203070:	01300793          	li	a5,19
    80203074:	f6e7d8e3          	bge	a5,a4,80202fe4 <file_alloc+0x14>
    80203078:	00000793          	li	a5,0
    8020307c:	00078513          	mv	a0,a5
    80203080:	01813403          	ld	s0,24(sp)
    80203084:	02010113          	addi	sp,sp,32
    80203088:	00008067          	ret

000000008020308c <file_dup>:
    8020308c:	fe010113          	addi	sp,sp,-32
    80203090:	00113c23          	sd	ra,24(sp)
    80203094:	00813823          	sd	s0,16(sp)
    80203098:	02010413          	addi	s0,sp,32
    8020309c:	fea43423          	sd	a0,-24(s0)
    802030a0:	fe843783          	ld	a5,-24(s0)
    802030a4:	0047a783          	lw	a5,4(a5)
    802030a8:	00f04863          	bgtz	a5,802030b8 <file_dup+0x2c>
    802030ac:	00004517          	auipc	a0,0x4
    802030b0:	5e450513          	addi	a0,a0,1508 # 80207690 <fault_info+0x238>
    802030b4:	be4fd0ef          	jal	ra,80200498 <panic>
    802030b8:	fe843783          	ld	a5,-24(s0)
    802030bc:	0047a783          	lw	a5,4(a5)
    802030c0:	0017879b          	addiw	a5,a5,1
    802030c4:	0007871b          	sext.w	a4,a5
    802030c8:	fe843783          	ld	a5,-24(s0)
    802030cc:	00e7a223          	sw	a4,4(a5)
    802030d0:	fe843783          	ld	a5,-24(s0)
    802030d4:	00078513          	mv	a0,a5
    802030d8:	01813083          	ld	ra,24(sp)
    802030dc:	01013403          	ld	s0,16(sp)
    802030e0:	02010113          	addi	sp,sp,32
    802030e4:	00008067          	ret

00000000802030e8 <file_close>:
    802030e8:	fe010113          	addi	sp,sp,-32
    802030ec:	00813c23          	sd	s0,24(sp)
    802030f0:	02010413          	addi	s0,sp,32
    802030f4:	fea43423          	sd	a0,-24(s0)
    802030f8:	fe843783          	ld	a5,-24(s0)
    802030fc:	fff00713          	li	a4,-1
    80203100:	00e7a223          	sw	a4,4(a5)
    80203104:	fe843783          	ld	a5,-24(s0)
    80203108:	0007a023          	sw	zero,0(a5)
    8020310c:	00000013          	nop
    80203110:	01813403          	ld	s0,24(sp)
    80203114:	02010113          	addi	sp,sp,32
    80203118:	00008067          	ret

000000008020311c <fd_alloc>:
    8020311c:	fd010113          	addi	sp,sp,-48
    80203120:	02813423          	sd	s0,40(sp)
    80203124:	03010413          	addi	s0,sp,48
    80203128:	fca43c23          	sd	a0,-40(s0)
    8020312c:	fe042623          	sw	zero,-20(s0)
    80203130:	0600006f          	j	80203190 <fd_alloc+0x74>
    80203134:	0000a797          	auipc	a5,0xa
    80203138:	eec78793          	addi	a5,a5,-276 # 8020d020 <proc_ptr>
    8020313c:	0007b703          	ld	a4,0(a5)
    80203140:	fec42783          	lw	a5,-20(s0)
    80203144:	01678793          	addi	a5,a5,22
    80203148:	00379793          	slli	a5,a5,0x3
    8020314c:	00f707b3          	add	a5,a4,a5
    80203150:	0007b783          	ld	a5,0(a5)
    80203154:	02079863          	bnez	a5,80203184 <fd_alloc+0x68>
    80203158:	0000a797          	auipc	a5,0xa
    8020315c:	ec878793          	addi	a5,a5,-312 # 8020d020 <proc_ptr>
    80203160:	0007b703          	ld	a4,0(a5)
    80203164:	fec42783          	lw	a5,-20(s0)
    80203168:	01678793          	addi	a5,a5,22
    8020316c:	00379793          	slli	a5,a5,0x3
    80203170:	00f707b3          	add	a5,a4,a5
    80203174:	fd843703          	ld	a4,-40(s0)
    80203178:	00e7b023          	sd	a4,0(a5)
    8020317c:	fec42783          	lw	a5,-20(s0)
    80203180:	0240006f          	j	802031a4 <fd_alloc+0x88>
    80203184:	fec42783          	lw	a5,-20(s0)
    80203188:	0017879b          	addiw	a5,a5,1
    8020318c:	fef42623          	sw	a5,-20(s0)
    80203190:	fec42783          	lw	a5,-20(s0)
    80203194:	0007871b          	sext.w	a4,a5
    80203198:	01300793          	li	a5,19
    8020319c:	f8e7dce3          	bge	a5,a4,80203134 <fd_alloc+0x18>
    802031a0:	fff00793          	li	a5,-1
    802031a4:	00078513          	mv	a0,a5
    802031a8:	02813403          	ld	s0,40(sp)
    802031ac:	03010113          	addi	sp,sp,48
    802031b0:	00008067          	ret

00000000802031b4 <back_trace>:
    802031b4:	fd010113          	addi	sp,sp,-48
    802031b8:	02113423          	sd	ra,40(sp)
    802031bc:	02813023          	sd	s0,32(sp)
    802031c0:	03010413          	addi	s0,sp,48
    802031c4:	00040793          	mv	a5,s0
    802031c8:	fef43023          	sd	a5,-32(s0)
    802031cc:	fe043783          	ld	a5,-32(s0)
    802031d0:	ff078793          	addi	a5,a5,-16
    802031d4:	fef43423          	sd	a5,-24(s0)
    802031d8:	0340006f          	j	8020320c <back_trace+0x58>
    802031dc:	fe843783          	ld	a5,-24(s0)
    802031e0:	0087b783          	ld	a5,8(a5)
    802031e4:	ffc78793          	addi	a5,a5,-4
    802031e8:	fcf43c23          	sd	a5,-40(s0)
    802031ec:	fd843583          	ld	a1,-40(s0)
    802031f0:	00004517          	auipc	a0,0x4
    802031f4:	4c050513          	addi	a0,a0,1216 # 802076b0 <fault_info+0x258>
    802031f8:	910fd0ef          	jal	ra,80200308 <printf>
    802031fc:	fe843783          	ld	a5,-24(s0)
    80203200:	0007b783          	ld	a5,0(a5)
    80203204:	ff078793          	addi	a5,a5,-16
    80203208:	fef43423          	sd	a5,-24(s0)
    8020320c:	fe843783          	ld	a5,-24(s0)
    80203210:	0007b703          	ld	a4,0(a5)
    80203214:	40100793          	li	a5,1025
    80203218:	01579793          	slli	a5,a5,0x15
    8020321c:	fce7e0e3          	bltu	a5,a4,802031dc <back_trace+0x28>
    80203220:	00000013          	nop
    80203224:	00000013          	nop
    80203228:	02813083          	ld	ra,40(sp)
    8020322c:	02013403          	ld	s0,32(sp)
    80203230:	03010113          	addi	sp,sp,48
    80203234:	00008067          	ret

0000000080203238 <acquire>:
    80203238:	fe010113          	addi	sp,sp,-32
    8020323c:	00813c23          	sd	s0,24(sp)
    80203240:	02010413          	addi	s0,sp,32
    80203244:	fea43423          	sd	a0,-24(s0)
    80203248:	00000013          	nop
    8020324c:	fe843783          	ld	a5,-24(s0)
    80203250:	00100713          	li	a4,1
    80203254:	0ce7a72f          	amoswap.w.aq	a4,a4,(a5)
    80203258:	0007079b          	sext.w	a5,a4
    8020325c:	fe0798e3          	bnez	a5,8020324c <acquire+0x14>
    80203260:	0ff0000f          	fence
    80203264:	00000013          	nop
    80203268:	01813403          	ld	s0,24(sp)
    8020326c:	02010113          	addi	sp,sp,32
    80203270:	00008067          	ret

0000000080203274 <release>:
    80203274:	fe010113          	addi	sp,sp,-32
    80203278:	00813c23          	sd	s0,24(sp)
    8020327c:	02010413          	addi	s0,sp,32
    80203280:	fea43423          	sd	a0,-24(s0)
    80203284:	0ff0000f          	fence
    80203288:	fe843783          	ld	a5,-24(s0)
    8020328c:	0f50000f          	fence	iorw,ow
    80203290:	0807a02f          	amoswap.w	zero,zero,(a5)
    80203294:	00000013          	nop
    80203298:	01813403          	ld	s0,24(sp)
    8020329c:	02010113          	addi	sp,sp,32
    802032a0:	00008067          	ret

00000000802032a4 <uart_send_c>:
    802032a4:	fe010113          	addi	sp,sp,-32
    802032a8:	00813c23          	sd	s0,24(sp)
    802032ac:	02010413          	addi	s0,sp,32
    802032b0:	00050793          	mv	a5,a0
    802032b4:	fef407a3          	sb	a5,-17(s0)
    802032b8:	00000013          	nop
    802032bc:	100007b7          	lui	a5,0x10000
    802032c0:	00578793          	addi	a5,a5,5 # 10000005 <_start-0x701ffffb>
    802032c4:	0007c783          	lbu	a5,0(a5)
    802032c8:	0ff7f793          	andi	a5,a5,255
    802032cc:	0007879b          	sext.w	a5,a5
    802032d0:	0207f793          	andi	a5,a5,32
    802032d4:	0007879b          	sext.w	a5,a5
    802032d8:	fe0782e3          	beqz	a5,802032bc <uart_send_c+0x18>
    802032dc:	100007b7          	lui	a5,0x10000
    802032e0:	fef44703          	lbu	a4,-17(s0)
    802032e4:	00e78023          	sb	a4,0(a5) # 10000000 <_start-0x70200000>
    802032e8:	00000013          	nop
    802032ec:	01813403          	ld	s0,24(sp)
    802032f0:	02010113          	addi	sp,sp,32
    802032f4:	00008067          	ret

00000000802032f8 <uart_send_str>:
    802032f8:	fe010113          	addi	sp,sp,-32
    802032fc:	00113c23          	sd	ra,24(sp)
    80203300:	00813823          	sd	s0,16(sp)
    80203304:	02010413          	addi	s0,sp,32
    80203308:	fea43423          	sd	a0,-24(s0)
    8020330c:	0200006f          	j	8020332c <uart_send_str+0x34>
    80203310:	fe843783          	ld	a5,-24(s0)
    80203314:	0007c783          	lbu	a5,0(a5)
    80203318:	00078513          	mv	a0,a5
    8020331c:	f89ff0ef          	jal	ra,802032a4 <uart_send_c>
    80203320:	fe843783          	ld	a5,-24(s0)
    80203324:	00178793          	addi	a5,a5,1
    80203328:	fef43423          	sd	a5,-24(s0)
    8020332c:	fe843783          	ld	a5,-24(s0)
    80203330:	0007c783          	lbu	a5,0(a5)
    80203334:	fc079ee3          	bnez	a5,80203310 <uart_send_str+0x18>
    80203338:	00000013          	nop
    8020333c:	00000013          	nop
    80203340:	01813083          	ld	ra,24(sp)
    80203344:	01013403          	ld	s0,16(sp)
    80203348:	02010113          	addi	sp,sp,32
    8020334c:	00008067          	ret

0000000080203350 <uart_rd_char>:
    80203350:	ff010113          	addi	sp,sp,-16
    80203354:	00813423          	sd	s0,8(sp)
    80203358:	01010413          	addi	s0,sp,16
    8020335c:	100007b7          	lui	a5,0x10000
    80203360:	00578793          	addi	a5,a5,5 # 10000005 <_start-0x701ffffb>
    80203364:	0007c783          	lbu	a5,0(a5)
    80203368:	0ff7f793          	andi	a5,a5,255
    8020336c:	0007879b          	sext.w	a5,a5
    80203370:	0017f793          	andi	a5,a5,1
    80203374:	0007879b          	sext.w	a5,a5
    80203378:	00078a63          	beqz	a5,8020338c <uart_rd_char+0x3c>
    8020337c:	100007b7          	lui	a5,0x10000
    80203380:	0007c783          	lbu	a5,0(a5) # 10000000 <_start-0x70200000>
    80203384:	0ff7f793          	andi	a5,a5,255
    80203388:	0080006f          	j	80203390 <uart_rd_char+0x40>
    8020338c:	0ff00793          	li	a5,255
    80203390:	00078513          	mv	a0,a5
    80203394:	00813403          	ld	s0,8(sp)
    80203398:	01010113          	addi	sp,sp,16
    8020339c:	00008067          	ret

00000000802033a0 <plicinit>:
    802033a0:	ff010113          	addi	sp,sp,-16
    802033a4:	00813423          	sd	s0,8(sp)
    802033a8:	01010413          	addi	s0,sp,16
    802033ac:	0c0007b7          	lui	a5,0xc000
    802033b0:	02878793          	addi	a5,a5,40 # c000028 <_start-0x741fffd8>
    802033b4:	00100713          	li	a4,1
    802033b8:	00e7a023          	sw	a4,0(a5)
    802033bc:	0c0007b7          	lui	a5,0xc000
    802033c0:	00478793          	addi	a5,a5,4 # c000004 <_start-0x741ffffc>
    802033c4:	00100713          	li	a4,1
    802033c8:	00e7a023          	sw	a4,0(a5)
    802033cc:	00000013          	nop
    802033d0:	00813403          	ld	s0,8(sp)
    802033d4:	01010113          	addi	sp,sp,16
    802033d8:	00008067          	ret

00000000802033dc <plicinithart>:
    802033dc:	fe010113          	addi	sp,sp,-32
    802033e0:	00813c23          	sd	s0,24(sp)
    802033e4:	02010413          	addi	s0,sp,32
    802033e8:	fe042623          	sw	zero,-20(s0)
    802033ec:	fec42783          	lw	a5,-20(s0)
    802033f0:	0087979b          	slliw	a5,a5,0x8
    802033f4:	0007879b          	sext.w	a5,a5
    802033f8:	00078713          	mv	a4,a5
    802033fc:	0c0027b7          	lui	a5,0xc002
    80203400:	08078793          	addi	a5,a5,128 # c002080 <_start-0x741fdf80>
    80203404:	00f707b3          	add	a5,a4,a5
    80203408:	00078713          	mv	a4,a5
    8020340c:	40200793          	li	a5,1026
    80203410:	00f72023          	sw	a5,0(a4)
    80203414:	fec42783          	lw	a5,-20(s0)
    80203418:	00d7979b          	slliw	a5,a5,0xd
    8020341c:	0007879b          	sext.w	a5,a5
    80203420:	00078713          	mv	a4,a5
    80203424:	0c2017b7          	lui	a5,0xc201
    80203428:	00f707b3          	add	a5,a4,a5
    8020342c:	0007a023          	sw	zero,0(a5) # c201000 <_start-0x73fff000>
    80203430:	00000013          	nop
    80203434:	01813403          	ld	s0,24(sp)
    80203438:	02010113          	addi	sp,sp,32
    8020343c:	00008067          	ret

0000000080203440 <plic_claim>:
    80203440:	fe010113          	addi	sp,sp,-32
    80203444:	00813c23          	sd	s0,24(sp)
    80203448:	02010413          	addi	s0,sp,32
    8020344c:	fe042623          	sw	zero,-20(s0)
    80203450:	fec42783          	lw	a5,-20(s0)
    80203454:	00d7979b          	slliw	a5,a5,0xd
    80203458:	0007879b          	sext.w	a5,a5
    8020345c:	00078713          	mv	a4,a5
    80203460:	0c2017b7          	lui	a5,0xc201
    80203464:	00478793          	addi	a5,a5,4 # c201004 <_start-0x73ffeffc>
    80203468:	00f707b3          	add	a5,a4,a5
    8020346c:	0007a783          	lw	a5,0(a5)
    80203470:	fef42423          	sw	a5,-24(s0)
    80203474:	fe842783          	lw	a5,-24(s0)
    80203478:	00078513          	mv	a0,a5
    8020347c:	01813403          	ld	s0,24(sp)
    80203480:	02010113          	addi	sp,sp,32
    80203484:	00008067          	ret

0000000080203488 <plic_complete>:
    80203488:	fd010113          	addi	sp,sp,-48
    8020348c:	02813423          	sd	s0,40(sp)
    80203490:	03010413          	addi	s0,sp,48
    80203494:	00050793          	mv	a5,a0
    80203498:	fcf42e23          	sw	a5,-36(s0)
    8020349c:	fe042623          	sw	zero,-20(s0)
    802034a0:	fec42783          	lw	a5,-20(s0)
    802034a4:	00d7979b          	slliw	a5,a5,0xd
    802034a8:	0007879b          	sext.w	a5,a5
    802034ac:	00078713          	mv	a4,a5
    802034b0:	0c2017b7          	lui	a5,0xc201
    802034b4:	00478793          	addi	a5,a5,4 # c201004 <_start-0x73ffeffc>
    802034b8:	00f707b3          	add	a5,a4,a5
    802034bc:	00078713          	mv	a4,a5
    802034c0:	fdc42783          	lw	a5,-36(s0)
    802034c4:	00f72023          	sw	a5,0(a4)
    802034c8:	00000013          	nop
    802034cc:	02813403          	ld	s0,40(sp)
    802034d0:	03010113          	addi	sp,sp,48
    802034d4:	00008067          	ret

00000000802034d8 <r_sstatus>:
    802034d8:	fe010113          	addi	sp,sp,-32
    802034dc:	00813c23          	sd	s0,24(sp)
    802034e0:	02010413          	addi	s0,sp,32
    802034e4:	100027f3          	csrr	a5,sstatus
    802034e8:	fef43423          	sd	a5,-24(s0)
    802034ec:	fe843783          	ld	a5,-24(s0)
    802034f0:	00078513          	mv	a0,a5
    802034f4:	01813403          	ld	s0,24(sp)
    802034f8:	02010113          	addi	sp,sp,32
    802034fc:	00008067          	ret

0000000080203500 <w_sstatus>:
    80203500:	fe010113          	addi	sp,sp,-32
    80203504:	00813c23          	sd	s0,24(sp)
    80203508:	02010413          	addi	s0,sp,32
    8020350c:	fea43423          	sd	a0,-24(s0)
    80203510:	fe843783          	ld	a5,-24(s0)
    80203514:	10079073          	csrw	sstatus,a5
    80203518:	00000013          	nop
    8020351c:	01813403          	ld	s0,24(sp)
    80203520:	02010113          	addi	sp,sp,32
    80203524:	00008067          	ret

0000000080203528 <intr_on>:
    80203528:	ff010113          	addi	sp,sp,-16
    8020352c:	00113423          	sd	ra,8(sp)
    80203530:	00813023          	sd	s0,0(sp)
    80203534:	01010413          	addi	s0,sp,16
    80203538:	fa1ff0ef          	jal	ra,802034d8 <r_sstatus>
    8020353c:	00050793          	mv	a5,a0
    80203540:	0027e793          	ori	a5,a5,2
    80203544:	00078513          	mv	a0,a5
    80203548:	fb9ff0ef          	jal	ra,80203500 <w_sstatus>
    8020354c:	00000013          	nop
    80203550:	00813083          	ld	ra,8(sp)
    80203554:	00013403          	ld	s0,0(sp)
    80203558:	01010113          	addi	sp,sp,16
    8020355c:	00008067          	ret

0000000080203560 <init_proc_kstack>:
    80203560:	fc010113          	addi	sp,sp,-64
    80203564:	02113c23          	sd	ra,56(sp)
    80203568:	02813823          	sd	s0,48(sp)
    8020356c:	04010413          	addi	s0,sp,64
    80203570:	fca43423          	sd	a0,-56(s0)
    80203574:	0000d797          	auipc	a5,0xd
    80203578:	f5478793          	addi	a5,a5,-172 # 802104c8 <proc_list>
    8020357c:	fef43423          	sd	a5,-24(s0)
    80203580:	fe042223          	sw	zero,-28(s0)
    80203584:	fe042223          	sw	zero,-28(s0)
    80203588:	0a40006f          	j	8020362c <init_proc_kstack+0xcc>
    8020358c:	b74fd0ef          	jal	ra,80200900 <kalloc>
    80203590:	fca43c23          	sd	a0,-40(s0)
    80203594:	fd843783          	ld	a5,-40(s0)
    80203598:	06078863          	beqz	a5,80203608 <init_proc_kstack+0xa8>
    8020359c:	fd843583          	ld	a1,-40(s0)
    802035a0:	fe442783          	lw	a5,-28(s0)
    802035a4:	00d7979b          	slliw	a5,a5,0xd
    802035a8:	0007879b          	sext.w	a5,a5
    802035ac:	00078713          	mv	a4,a5
    802035b0:	00300793          	li	a5,3
    802035b4:	02079793          	slli	a5,a5,0x20
    802035b8:	40e787b3          	sub	a5,a5,a4
    802035bc:	00e00713          	li	a4,14
    802035c0:	00100693          	li	a3,1
    802035c4:	00078613          	mv	a2,a5
    802035c8:	fc843503          	ld	a0,-56(s0)
    802035cc:	e04fd0ef          	jal	ra,80200bd0 <map_page>
    802035d0:	fe442783          	lw	a5,-28(s0)
    802035d4:	00d7979b          	slliw	a5,a5,0xd
    802035d8:	0007879b          	sext.w	a5,a5
    802035dc:	00078713          	mv	a4,a5
    802035e0:	003007b7          	lui	a5,0x300
    802035e4:	00178793          	addi	a5,a5,1 # 300001 <_start-0x7fefffff>
    802035e8:	00c79793          	slli	a5,a5,0xc
    802035ec:	40e787b3          	sub	a5,a5,a4
    802035f0:	00078713          	mv	a4,a5
    802035f4:	fe843783          	ld	a5,-24(s0)
    802035f8:	00e7b023          	sd	a4,0(a5)
    802035fc:	fe843783          	ld	a5,-24(s0)
    80203600:	0807aa23          	sw	zero,148(a5)
    80203604:	0100006f          	j	80203614 <init_proc_kstack+0xb4>
    80203608:	00004517          	auipc	a0,0x4
    8020360c:	0b050513          	addi	a0,a0,176 # 802076b8 <fault_info+0x260>
    80203610:	e89fc0ef          	jal	ra,80200498 <panic>
    80203614:	fe843783          	ld	a5,-24(s0)
    80203618:	10078793          	addi	a5,a5,256
    8020361c:	fef43423          	sd	a5,-24(s0)
    80203620:	fe442783          	lw	a5,-28(s0)
    80203624:	0017879b          	addiw	a5,a5,1
    80203628:	fef42223          	sw	a5,-28(s0)
    8020362c:	fe442783          	lw	a5,-28(s0)
    80203630:	0007871b          	sext.w	a4,a5
    80203634:	00900793          	li	a5,9
    80203638:	f4e7dae3          	bge	a5,a4,8020358c <init_proc_kstack+0x2c>
    8020363c:	00000013          	nop
    80203640:	00000013          	nop
    80203644:	03813083          	ld	ra,56(sp)
    80203648:	03013403          	ld	s0,48(sp)
    8020364c:	04010113          	addi	sp,sp,64
    80203650:	00008067          	ret

0000000080203654 <proc_pagetable>:
    80203654:	fe010113          	addi	sp,sp,-32
    80203658:	00113c23          	sd	ra,24(sp)
    8020365c:	00813823          	sd	s0,16(sp)
    80203660:	02010413          	addi	s0,sp,32
    80203664:	a9cfd0ef          	jal	ra,80200900 <kalloc>
    80203668:	fea43423          	sd	a0,-24(s0)
    8020366c:	fe843783          	ld	a5,-24(s0)
    80203670:	00079663          	bnez	a5,8020367c <proc_pagetable+0x28>
    80203674:	00000793          	li	a5,0
    80203678:	0080006f          	j	80203680 <proc_pagetable+0x2c>
    8020367c:	fe843783          	ld	a5,-24(s0)
    80203680:	00078513          	mv	a0,a5
    80203684:	01813083          	ld	ra,24(sp)
    80203688:	01013403          	ld	s0,16(sp)
    8020368c:	02010113          	addi	sp,sp,32
    80203690:	00008067          	ret

0000000080203694 <fork_ret>:
    80203694:	ff010113          	addi	sp,sp,-16
    80203698:	00113423          	sd	ra,8(sp)
    8020369c:	00813023          	sd	s0,0(sp)
    802036a0:	01010413          	addi	s0,sp,16
    802036a4:	0000d797          	auipc	a5,0xd
    802036a8:	a8478793          	addi	a5,a5,-1404 # 80210128 <flag.1379>
    802036ac:	0007a783          	lw	a5,0(a5)
    802036b0:	00079c63          	bnez	a5,802036c8 <fork_ret+0x34>
    802036b4:	595000ef          	jal	ra,80204448 <fs_init>
    802036b8:	0000d797          	auipc	a5,0xd
    802036bc:	a7078793          	addi	a5,a5,-1424 # 80210128 <flag.1379>
    802036c0:	00100713          	li	a4,1
    802036c4:	00e7a023          	sw	a4,0(a5)
    802036c8:	9fcff0ef          	jal	ra,802028c4 <user_trap_ret>
    802036cc:	00000013          	nop
    802036d0:	00813083          	ld	ra,8(sp)
    802036d4:	00013403          	ld	s0,0(sp)
    802036d8:	01010113          	addi	sp,sp,16
    802036dc:	00008067          	ret

00000000802036e0 <user_init>:
    802036e0:	fe010113          	addi	sp,sp,-32
    802036e4:	00113c23          	sd	ra,24(sp)
    802036e8:	00813823          	sd	s0,16(sp)
    802036ec:	02010413          	addi	s0,sp,32
    802036f0:	0000a797          	auipc	a5,0xa
    802036f4:	93078793          	addi	a5,a5,-1744 # 8020d020 <proc_ptr>
    802036f8:	0000d717          	auipc	a4,0xd
    802036fc:	dd070713          	addi	a4,a4,-560 # 802104c8 <proc_list>
    80203700:	00e7b023          	sd	a4,0(a5)
    80203704:	0000a797          	auipc	a5,0xa
    80203708:	91c78793          	addi	a5,a5,-1764 # 8020d020 <proc_ptr>
    8020370c:	0007b783          	ld	a5,0(a5)
    80203710:	0000c717          	auipc	a4,0xc
    80203714:	8f070713          	addi	a4,a4,-1808 # 8020f000 <_sec_pgt_start>
    80203718:	00e7b423          	sd	a4,8(a5)
    8020371c:	0000a797          	auipc	a5,0xa
    80203720:	90478793          	addi	a5,a5,-1788 # 8020d020 <proc_ptr>
    80203724:	0007b783          	ld	a5,0(a5)
    80203728:	0000d717          	auipc	a4,0xd
    8020372c:	a1470713          	addi	a4,a4,-1516 # 8021013c <pid>
    80203730:	00072703          	lw	a4,0(a4)
    80203734:	08e7ac23          	sw	a4,152(a5)
    80203738:	0000a797          	auipc	a5,0xa
    8020373c:	8e878793          	addi	a5,a5,-1816 # 8020d020 <proc_ptr>
    80203740:	0007b783          	ld	a5,0(a5)
    80203744:	00200713          	li	a4,2
    80203748:	08e7aa23          	sw	a4,148(a5)
    8020374c:	0000a797          	auipc	a5,0xa
    80203750:	8d478793          	addi	a5,a5,-1836 # 8020d020 <proc_ptr>
    80203754:	0007b783          	ld	a5,0(a5)
    80203758:	01878793          	addi	a5,a5,24
    8020375c:	06800613          	li	a2,104
    80203760:	00000593          	li	a1,0
    80203764:	00078513          	mv	a0,a5
    80203768:	029000ef          	jal	ra,80203f90 <memset>
    8020376c:	0000a797          	auipc	a5,0xa
    80203770:	8b478793          	addi	a5,a5,-1868 # 8020d020 <proc_ptr>
    80203774:	0007b783          	ld	a5,0(a5)
    80203778:	00000717          	auipc	a4,0x0
    8020377c:	f1c70713          	addi	a4,a4,-228 # 80203694 <fork_ret>
    80203780:	00e7bc23          	sd	a4,24(a5)
    80203784:	0000a797          	auipc	a5,0xa
    80203788:	89c78793          	addi	a5,a5,-1892 # 8020d020 <proc_ptr>
    8020378c:	0007b783          	ld	a5,0(a5)
    80203790:	0007b703          	ld	a4,0(a5)
    80203794:	0000a797          	auipc	a5,0xa
    80203798:	88c78793          	addi	a5,a5,-1908 # 8020d020 <proc_ptr>
    8020379c:	0007b783          	ld	a5,0(a5)
    802037a0:	02e7b023          	sd	a4,32(a5)
    802037a4:	0000a797          	auipc	a5,0xa
    802037a8:	87c78793          	addi	a5,a5,-1924 # 8020d020 <proc_ptr>
    802037ac:	0007b783          	ld	a5,0(a5)
    802037b0:	00100713          	li	a4,1
    802037b4:	08e7b023          	sd	a4,128(a5)
    802037b8:	948fd0ef          	jal	ra,80200900 <kalloc>
    802037bc:	fea43423          	sd	a0,-24(s0)
    802037c0:	0000a797          	auipc	a5,0xa
    802037c4:	86078793          	addi	a5,a5,-1952 # 8020d020 <proc_ptr>
    802037c8:	0007b783          	ld	a5,0(a5)
    802037cc:	0087b503          	ld	a0,8(a5)
    802037d0:	00003597          	auipc	a1,0x3
    802037d4:	83058593          	addi	a1,a1,-2000 # 80206000 <_trampoline>
    802037d8:	00e00713          	li	a4,14
    802037dc:	00100693          	li	a3,1
    802037e0:	040007b7          	lui	a5,0x4000
    802037e4:	fff78793          	addi	a5,a5,-1 # 3ffffff <_start-0x7c200001>
    802037e8:	00c79613          	slli	a2,a5,0xc
    802037ec:	be4fd0ef          	jal	ra,80200bd0 <map_page>
    802037f0:	0000a797          	auipc	a5,0xa
    802037f4:	83078793          	addi	a5,a5,-2000 # 8020d020 <proc_ptr>
    802037f8:	0007b783          	ld	a5,0(a5)
    802037fc:	0087b783          	ld	a5,8(a5)
    80203800:	fe843583          	ld	a1,-24(s0)
    80203804:	01e00713          	li	a4,30
    80203808:	00100693          	li	a3,1
    8020380c:	00000613          	li	a2,0
    80203810:	00078513          	mv	a0,a5
    80203814:	bbcfd0ef          	jal	ra,80200bd0 <map_page>
    80203818:	01800613          	li	a2,24
    8020381c:	00005597          	auipc	a1,0x5
    80203820:	8ec58593          	addi	a1,a1,-1812 # 80208108 <initcode>
    80203824:	fe843503          	ld	a0,-24(s0)
    80203828:	7f0000ef          	jal	ra,80204018 <memmove>
    8020382c:	8d4fd0ef          	jal	ra,80200900 <kalloc>
    80203830:	fea43023          	sd	a0,-32(s0)
    80203834:	00009797          	auipc	a5,0x9
    80203838:	7ec78793          	addi	a5,a5,2028 # 8020d020 <proc_ptr>
    8020383c:	0007b783          	ld	a5,0(a5)
    80203840:	fe043703          	ld	a4,-32(s0)
    80203844:	00e7b823          	sd	a4,16(a5)
    80203848:	00009797          	auipc	a5,0x9
    8020384c:	7d878793          	addi	a5,a5,2008 # 8020d020 <proc_ptr>
    80203850:	0007b783          	ld	a5,0(a5)
    80203854:	0107b783          	ld	a5,16(a5)
    80203858:	0007bc23          	sd	zero,24(a5)
    8020385c:	00009797          	auipc	a5,0x9
    80203860:	7c478793          	addi	a5,a5,1988 # 8020d020 <proc_ptr>
    80203864:	0007b783          	ld	a5,0(a5)
    80203868:	0107b783          	ld	a5,16(a5)
    8020386c:	00001737          	lui	a4,0x1
    80203870:	02e7b823          	sd	a4,48(a5)
    80203874:	00009797          	auipc	a5,0x9
    80203878:	7ac78793          	addi	a5,a5,1964 # 8020d020 <proc_ptr>
    8020387c:	0007b783          	ld	a5,0(a5)
    80203880:	0087b503          	ld	a0,8(a5)
    80203884:	00009797          	auipc	a5,0x9
    80203888:	79c78793          	addi	a5,a5,1948 # 8020d020 <proc_ptr>
    8020388c:	0007b783          	ld	a5,0(a5)
    80203890:	0107b783          	ld	a5,16(a5)
    80203894:	00078593          	mv	a1,a5
    80203898:	00e00713          	li	a4,14
    8020389c:	00100693          	li	a3,1
    802038a0:	020007b7          	lui	a5,0x2000
    802038a4:	fff78793          	addi	a5,a5,-1 # 1ffffff <_start-0x7e200001>
    802038a8:	00d79613          	slli	a2,a5,0xd
    802038ac:	b24fd0ef          	jal	ra,80200bd0 <map_page>
    802038b0:	00000013          	nop
    802038b4:	01813083          	ld	ra,24(sp)
    802038b8:	01013403          	ld	s0,16(sp)
    802038bc:	02010113          	addi	sp,sp,32
    802038c0:	00008067          	ret

00000000802038c4 <scheduler>:
    802038c4:	fe010113          	addi	sp,sp,-32
    802038c8:	00113c23          	sd	ra,24(sp)
    802038cc:	00813823          	sd	s0,16(sp)
    802038d0:	02010413          	addi	s0,sp,32
    802038d4:	0000d797          	auipc	a5,0xd
    802038d8:	5f478793          	addi	a5,a5,1524 # 80210ec8 <kernel_ctxt>
    802038dc:	fef43023          	sd	a5,-32(s0)
    802038e0:	c49ff0ef          	jal	ra,80203528 <intr_on>
    802038e4:	00009797          	auipc	a5,0x9
    802038e8:	73c78793          	addi	a5,a5,1852 # 8020d020 <proc_ptr>
    802038ec:	0000d717          	auipc	a4,0xd
    802038f0:	bdc70713          	addi	a4,a4,-1060 # 802104c8 <proc_list>
    802038f4:	00e7b023          	sd	a4,0(a5)
    802038f8:	fe042623          	sw	zero,-20(s0)
    802038fc:	0800006f          	j	8020397c <scheduler+0xb8>
    80203900:	00009797          	auipc	a5,0x9
    80203904:	72078793          	addi	a5,a5,1824 # 8020d020 <proc_ptr>
    80203908:	0007b783          	ld	a5,0(a5)
    8020390c:	0947a783          	lw	a5,148(a5)
    80203910:	00078713          	mv	a4,a5
    80203914:	00200793          	li	a5,2
    80203918:	02f71e63          	bne	a4,a5,80203954 <scheduler+0x90>
    8020391c:	00009797          	auipc	a5,0x9
    80203920:	70478793          	addi	a5,a5,1796 # 8020d020 <proc_ptr>
    80203924:	0007b783          	ld	a5,0(a5)
    80203928:	00300713          	li	a4,3
    8020392c:	08e7aa23          	sw	a4,148(a5)
    80203930:	fe043783          	ld	a5,-32(s0)
    80203934:	01878713          	addi	a4,a5,24
    80203938:	00009797          	auipc	a5,0x9
    8020393c:	6e878793          	addi	a5,a5,1768 # 8020d020 <proc_ptr>
    80203940:	0007b783          	ld	a5,0(a5)
    80203944:	01878793          	addi	a5,a5,24
    80203948:	00078593          	mv	a1,a5
    8020394c:	00070513          	mv	a0,a4
    80203950:	508010ef          	jal	ra,80204e58 <swtch>
    80203954:	00009797          	auipc	a5,0x9
    80203958:	6cc78793          	addi	a5,a5,1740 # 8020d020 <proc_ptr>
    8020395c:	0007b783          	ld	a5,0(a5)
    80203960:	10078713          	addi	a4,a5,256
    80203964:	00009797          	auipc	a5,0x9
    80203968:	6bc78793          	addi	a5,a5,1724 # 8020d020 <proc_ptr>
    8020396c:	00e7b023          	sd	a4,0(a5)
    80203970:	fec42783          	lw	a5,-20(s0)
    80203974:	0017879b          	addiw	a5,a5,1
    80203978:	fef42623          	sw	a5,-20(s0)
    8020397c:	fec42783          	lw	a5,-20(s0)
    80203980:	0007871b          	sext.w	a4,a5
    80203984:	00900793          	li	a5,9
    80203988:	f6e7dce3          	bge	a5,a4,80203900 <scheduler+0x3c>
    8020398c:	f55ff06f          	j	802038e0 <scheduler+0x1c>

0000000080203990 <sched>:
    80203990:	fe010113          	addi	sp,sp,-32
    80203994:	00113c23          	sd	ra,24(sp)
    80203998:	00813823          	sd	s0,16(sp)
    8020399c:	02010413          	addi	s0,sp,32
    802039a0:	0000d797          	auipc	a5,0xd
    802039a4:	52878793          	addi	a5,a5,1320 # 80210ec8 <kernel_ctxt>
    802039a8:	fef43423          	sd	a5,-24(s0)
    802039ac:	00009797          	auipc	a5,0x9
    802039b0:	67478793          	addi	a5,a5,1652 # 8020d020 <proc_ptr>
    802039b4:	0007b783          	ld	a5,0(a5)
    802039b8:	01878713          	addi	a4,a5,24
    802039bc:	fe843783          	ld	a5,-24(s0)
    802039c0:	01878793          	addi	a5,a5,24
    802039c4:	00078593          	mv	a1,a5
    802039c8:	00070513          	mv	a0,a4
    802039cc:	48c010ef          	jal	ra,80204e58 <swtch>
    802039d0:	00000013          	nop
    802039d4:	01813083          	ld	ra,24(sp)
    802039d8:	01013403          	ld	s0,16(sp)
    802039dc:	02010113          	addi	sp,sp,32
    802039e0:	00008067          	ret

00000000802039e4 <fork>:
    802039e4:	fc010113          	addi	sp,sp,-64
    802039e8:	02113c23          	sd	ra,56(sp)
    802039ec:	02813823          	sd	s0,48(sp)
    802039f0:	04010413          	addi	s0,sp,64
    802039f4:	fe042623          	sw	zero,-20(s0)
    802039f8:	17c0006f          	j	80203b74 <fork+0x190>
    802039fc:	0000d717          	auipc	a4,0xd
    80203a00:	acc70713          	addi	a4,a4,-1332 # 802104c8 <proc_list>
    80203a04:	fec42783          	lw	a5,-20(s0)
    80203a08:	00879793          	slli	a5,a5,0x8
    80203a0c:	00f707b3          	add	a5,a4,a5
    80203a10:	0947a783          	lw	a5,148(a5)
    80203a14:	14079a63          	bnez	a5,80203b68 <fork+0x184>
    80203a18:	fec42783          	lw	a5,-20(s0)
    80203a1c:	00879713          	slli	a4,a5,0x8
    80203a20:	0000d797          	auipc	a5,0xd
    80203a24:	aa878793          	addi	a5,a5,-1368 # 802104c8 <proc_list>
    80203a28:	00f707b3          	add	a5,a4,a5
    80203a2c:	fcf43c23          	sd	a5,-40(s0)
    80203a30:	00000013          	nop
    80203a34:	0000c797          	auipc	a5,0xc
    80203a38:	70878793          	addi	a5,a5,1800 # 8021013c <pid>
    80203a3c:	0007a783          	lw	a5,0(a5)
    80203a40:	0017879b          	addiw	a5,a5,1
    80203a44:	0007871b          	sext.w	a4,a5
    80203a48:	0000c797          	auipc	a5,0xc
    80203a4c:	6f478793          	addi	a5,a5,1780 # 8021013c <pid>
    80203a50:	00e7a023          	sw	a4,0(a5)
    80203a54:	0000c797          	auipc	a5,0xc
    80203a58:	6e878793          	addi	a5,a5,1768 # 8021013c <pid>
    80203a5c:	0007a703          	lw	a4,0(a5)
    80203a60:	fd843783          	ld	a5,-40(s0)
    80203a64:	08e7ac23          	sw	a4,152(a5)
    80203a68:	fd843783          	ld	a5,-40(s0)
    80203a6c:	00100713          	li	a4,1
    80203a70:	08e7aa23          	sw	a4,148(a5)
    80203a74:	be1ff0ef          	jal	ra,80203654 <proc_pagetable>
    80203a78:	00050713          	mv	a4,a0
    80203a7c:	fd843783          	ld	a5,-40(s0)
    80203a80:	00e7b423          	sd	a4,8(a5)
    80203a84:	e7dfc0ef          	jal	ra,80200900 <kalloc>
    80203a88:	00050713          	mv	a4,a0
    80203a8c:	fd843783          	ld	a5,-40(s0)
    80203a90:	00e7b823          	sd	a4,16(a5)
    80203a94:	fd843783          	ld	a5,-40(s0)
    80203a98:	0087b503          	ld	a0,8(a5)
    80203a9c:	00002597          	auipc	a1,0x2
    80203aa0:	56458593          	addi	a1,a1,1380 # 80206000 <_trampoline>
    80203aa4:	00e00713          	li	a4,14
    80203aa8:	00100693          	li	a3,1
    80203aac:	040007b7          	lui	a5,0x4000
    80203ab0:	fff78793          	addi	a5,a5,-1 # 3ffffff <_start-0x7c200001>
    80203ab4:	00c79613          	slli	a2,a5,0xc
    80203ab8:	918fd0ef          	jal	ra,80200bd0 <map_page>
    80203abc:	fd843783          	ld	a5,-40(s0)
    80203ac0:	0087b503          	ld	a0,8(a5)
    80203ac4:	fd843783          	ld	a5,-40(s0)
    80203ac8:	0107b783          	ld	a5,16(a5)
    80203acc:	00078593          	mv	a1,a5
    80203ad0:	00600713          	li	a4,6
    80203ad4:	00100693          	li	a3,1
    80203ad8:	020007b7          	lui	a5,0x2000
    80203adc:	fff78793          	addi	a5,a5,-1 # 1ffffff <_start-0x7e200001>
    80203ae0:	00d79613          	slli	a2,a5,0xd
    80203ae4:	8ecfd0ef          	jal	ra,80200bd0 <map_page>
    80203ae8:	00000717          	auipc	a4,0x0
    80203aec:	bac70713          	addi	a4,a4,-1108 # 80203694 <fork_ret>
    80203af0:	fd843783          	ld	a5,-40(s0)
    80203af4:	00e7bc23          	sd	a4,24(a5)
    80203af8:	fd843783          	ld	a5,-40(s0)
    80203afc:	0007b783          	ld	a5,0(a5)
    80203b00:	00078713          	mv	a4,a5
    80203b04:	fd843783          	ld	a5,-40(s0)
    80203b08:	02e7b023          	sd	a4,32(a5)
    80203b0c:	00009797          	auipc	a5,0x9
    80203b10:	51478793          	addi	a5,a5,1300 # 8020d020 <proc_ptr>
    80203b14:	0007b783          	ld	a5,0(a5)
    80203b18:	0107b703          	ld	a4,16(a5)
    80203b1c:	fd843783          	ld	a5,-40(s0)
    80203b20:	0107b783          	ld	a5,16(a5)
    80203b24:	00078693          	mv	a3,a5
    80203b28:	12000793          	li	a5,288
    80203b2c:	00078613          	mv	a2,a5
    80203b30:	00070593          	mv	a1,a4
    80203b34:	00068513          	mv	a0,a3
    80203b38:	5e4000ef          	jal	ra,8020411c <memcpy>
    80203b3c:	fd843783          	ld	a5,-40(s0)
    80203b40:	0107b783          	ld	a5,16(a5)
    80203b44:	0607b823          	sd	zero,112(a5)
    80203b48:	00009797          	auipc	a5,0x9
    80203b4c:	4d878793          	addi	a5,a5,1240 # 8020d020 <proc_ptr>
    80203b50:	0007b783          	ld	a5,0(a5)
    80203b54:	0807b703          	ld	a4,128(a5)
    80203b58:	fd843783          	ld	a5,-40(s0)
    80203b5c:	08e7b023          	sd	a4,128(a5)
    80203b60:	fe042423          	sw	zero,-24(s0)
    80203b64:	0c80006f          	j	80203c2c <fork+0x248>
    80203b68:	fec42783          	lw	a5,-20(s0)
    80203b6c:	0017879b          	addiw	a5,a5,1
    80203b70:	fef42623          	sw	a5,-20(s0)
    80203b74:	fec42783          	lw	a5,-20(s0)
    80203b78:	0007871b          	sext.w	a4,a5
    80203b7c:	00900793          	li	a5,9
    80203b80:	e6e7dee3          	bge	a5,a4,802039fc <fork+0x18>
    80203b84:	fff00793          	li	a5,-1
    80203b88:	1440006f          	j	80203ccc <fork+0x2e8>
    80203b8c:	00009797          	auipc	a5,0x9
    80203b90:	49478793          	addi	a5,a5,1172 # 8020d020 <proc_ptr>
    80203b94:	0007b783          	ld	a5,0(a5)
    80203b98:	0087b783          	ld	a5,8(a5)
    80203b9c:	fe842703          	lw	a4,-24(s0)
    80203ba0:	00000613          	li	a2,0
    80203ba4:	00070593          	mv	a1,a4
    80203ba8:	00078513          	mv	a0,a5
    80203bac:	db1fc0ef          	jal	ra,8020095c <walk>
    80203bb0:	fca43823          	sd	a0,-48(s0)
    80203bb4:	fd043783          	ld	a5,-48(s0)
    80203bb8:	0007b783          	ld	a5,0(a5)
    80203bbc:	00079863          	bnez	a5,80203bcc <fork+0x1e8>
    80203bc0:	00004517          	auipc	a0,0x4
    80203bc4:	b0050513          	addi	a0,a0,-1280 # 802076c0 <fault_info+0x268>
    80203bc8:	8d1fc0ef          	jal	ra,80200498 <panic>
    80203bcc:	fd043783          	ld	a5,-48(s0)
    80203bd0:	0007b783          	ld	a5,0(a5)
    80203bd4:	00a7d793          	srli	a5,a5,0xa
    80203bd8:	00c79793          	slli	a5,a5,0xc
    80203bdc:	fcf43423          	sd	a5,-56(s0)
    80203be0:	d21fc0ef          	jal	ra,80200900 <kalloc>
    80203be4:	fca43023          	sd	a0,-64(s0)
    80203be8:	fc843783          	ld	a5,-56(s0)
    80203bec:	00001637          	lui	a2,0x1
    80203bf0:	00078593          	mv	a1,a5
    80203bf4:	fc043503          	ld	a0,-64(s0)
    80203bf8:	420000ef          	jal	ra,80204018 <memmove>
    80203bfc:	fd843783          	ld	a5,-40(s0)
    80203c00:	0087b783          	ld	a5,8(a5)
    80203c04:	fc043583          	ld	a1,-64(s0)
    80203c08:	fe842603          	lw	a2,-24(s0)
    80203c0c:	01e00713          	li	a4,30
    80203c10:	00100693          	li	a3,1
    80203c14:	00078513          	mv	a0,a5
    80203c18:	fb9fc0ef          	jal	ra,80200bd0 <map_page>
    80203c1c:	fe842703          	lw	a4,-24(s0)
    80203c20:	000017b7          	lui	a5,0x1
    80203c24:	00f707bb          	addw	a5,a4,a5
    80203c28:	fef42423          	sw	a5,-24(s0)
    80203c2c:	fe842703          	lw	a4,-24(s0)
    80203c30:	00009797          	auipc	a5,0x9
    80203c34:	3f078793          	addi	a5,a5,1008 # 8020d020 <proc_ptr>
    80203c38:	0007b783          	ld	a5,0(a5)
    80203c3c:	0807b783          	ld	a5,128(a5)
    80203c40:	f4f766e3          	bltu	a4,a5,80203b8c <fork+0x1a8>
    80203c44:	fe042223          	sw	zero,-28(s0)
    80203c48:	0480006f          	j	80203c90 <fork+0x2ac>
    80203c4c:	00009797          	auipc	a5,0x9
    80203c50:	3d478793          	addi	a5,a5,980 # 8020d020 <proc_ptr>
    80203c54:	0007b703          	ld	a4,0(a5)
    80203c58:	fe442783          	lw	a5,-28(s0)
    80203c5c:	01678793          	addi	a5,a5,22
    80203c60:	00379793          	slli	a5,a5,0x3
    80203c64:	00f707b3          	add	a5,a4,a5
    80203c68:	0007b703          	ld	a4,0(a5)
    80203c6c:	fd843683          	ld	a3,-40(s0)
    80203c70:	fe442783          	lw	a5,-28(s0)
    80203c74:	01678793          	addi	a5,a5,22
    80203c78:	00379793          	slli	a5,a5,0x3
    80203c7c:	00f687b3          	add	a5,a3,a5
    80203c80:	00e7b023          	sd	a4,0(a5)
    80203c84:	fe442783          	lw	a5,-28(s0)
    80203c88:	0017879b          	addiw	a5,a5,1
    80203c8c:	fef42223          	sw	a5,-28(s0)
    80203c90:	fe442783          	lw	a5,-28(s0)
    80203c94:	0007871b          	sext.w	a4,a5
    80203c98:	00900793          	li	a5,9
    80203c9c:	fae7d8e3          	bge	a5,a4,80203c4c <fork+0x268>
    80203ca0:	00009797          	auipc	a5,0x9
    80203ca4:	38078793          	addi	a5,a5,896 # 8020d020 <proc_ptr>
    80203ca8:	0007b703          	ld	a4,0(a5)
    80203cac:	fd843783          	ld	a5,-40(s0)
    80203cb0:	0ae7b423          	sd	a4,168(a5)
    80203cb4:	fd843783          	ld	a5,-40(s0)
    80203cb8:	00200713          	li	a4,2
    80203cbc:	08e7aa23          	sw	a4,148(a5)
    80203cc0:	0000c797          	auipc	a5,0xc
    80203cc4:	47c78793          	addi	a5,a5,1148 # 8021013c <pid>
    80203cc8:	0007a783          	lw	a5,0(a5)
    80203ccc:	00078513          	mv	a0,a5
    80203cd0:	03813083          	ld	ra,56(sp)
    80203cd4:	03013403          	ld	s0,48(sp)
    80203cd8:	04010113          	addi	sp,sp,64
    80203cdc:	00008067          	ret

0000000080203ce0 <exit>:
    80203ce0:	fd010113          	addi	sp,sp,-48
    80203ce4:	02113423          	sd	ra,40(sp)
    80203ce8:	02813023          	sd	s0,32(sp)
    80203cec:	03010413          	addi	s0,sp,48
    80203cf0:	00050793          	mv	a5,a0
    80203cf4:	fcf42e23          	sw	a5,-36(s0)
    80203cf8:	fe042623          	sw	zero,-20(s0)
    80203cfc:	07c0006f          	j	80203d78 <exit+0x98>
    80203d00:	00009797          	auipc	a5,0x9
    80203d04:	32078793          	addi	a5,a5,800 # 8020d020 <proc_ptr>
    80203d08:	0007b703          	ld	a4,0(a5)
    80203d0c:	fec42783          	lw	a5,-20(s0)
    80203d10:	01678793          	addi	a5,a5,22
    80203d14:	00379793          	slli	a5,a5,0x3
    80203d18:	00f707b3          	add	a5,a4,a5
    80203d1c:	0007b783          	ld	a5,0(a5)
    80203d20:	04078663          	beqz	a5,80203d6c <exit+0x8c>
    80203d24:	00009797          	auipc	a5,0x9
    80203d28:	2fc78793          	addi	a5,a5,764 # 8020d020 <proc_ptr>
    80203d2c:	0007b703          	ld	a4,0(a5)
    80203d30:	fec42783          	lw	a5,-20(s0)
    80203d34:	01678793          	addi	a5,a5,22
    80203d38:	00379793          	slli	a5,a5,0x3
    80203d3c:	00f707b3          	add	a5,a4,a5
    80203d40:	0007b783          	ld	a5,0(a5)
    80203d44:	00078513          	mv	a0,a5
    80203d48:	ba0ff0ef          	jal	ra,802030e8 <file_close>
    80203d4c:	00009797          	auipc	a5,0x9
    80203d50:	2d478793          	addi	a5,a5,724 # 8020d020 <proc_ptr>
    80203d54:	0007b703          	ld	a4,0(a5)
    80203d58:	fec42783          	lw	a5,-20(s0)
    80203d5c:	01678793          	addi	a5,a5,22
    80203d60:	00379793          	slli	a5,a5,0x3
    80203d64:	00f707b3          	add	a5,a4,a5
    80203d68:	0007b023          	sd	zero,0(a5)
    80203d6c:	fec42783          	lw	a5,-20(s0)
    80203d70:	0017879b          	addiw	a5,a5,1
    80203d74:	fef42623          	sw	a5,-20(s0)
    80203d78:	fec42783          	lw	a5,-20(s0)
    80203d7c:	0007871b          	sext.w	a4,a5
    80203d80:	00900793          	li	a5,9
    80203d84:	f6e7dee3          	bge	a5,a4,80203d00 <exit+0x20>
    80203d88:	00009797          	auipc	a5,0x9
    80203d8c:	29878793          	addi	a5,a5,664 # 8020d020 <proc_ptr>
    80203d90:	0007b783          	ld	a5,0(a5)
    80203d94:	0a87b783          	ld	a5,168(a5)
    80203d98:	00078513          	mv	a0,a5
    80203d9c:	134000ef          	jal	ra,80203ed0 <wakeup>
    80203da0:	00009797          	auipc	a5,0x9
    80203da4:	28078793          	addi	a5,a5,640 # 8020d020 <proc_ptr>
    80203da8:	0007b783          	ld	a5,0(a5)
    80203dac:	00500713          	li	a4,5
    80203db0:	08e7aa23          	sw	a4,148(a5)
    80203db4:	bddff0ef          	jal	ra,80203990 <sched>
    80203db8:	00000013          	nop
    80203dbc:	02813083          	ld	ra,40(sp)
    80203dc0:	02013403          	ld	s0,32(sp)
    80203dc4:	03010113          	addi	sp,sp,48
    80203dc8:	00008067          	ret

0000000080203dcc <wait>:
    80203dcc:	ff010113          	addi	sp,sp,-16
    80203dd0:	00813423          	sd	s0,8(sp)
    80203dd4:	01010413          	addi	s0,sp,16
    80203dd8:	00000793          	li	a5,0
    80203ddc:	00078513          	mv	a0,a5
    80203de0:	00813403          	ld	s0,8(sp)
    80203de4:	01010113          	addi	sp,sp,16
    80203de8:	00008067          	ret

0000000080203dec <kill>:
    80203dec:	fd010113          	addi	sp,sp,-48
    80203df0:	02813423          	sd	s0,40(sp)
    80203df4:	03010413          	addi	s0,sp,48
    80203df8:	00050793          	mv	a5,a0
    80203dfc:	fcf42e23          	sw	a5,-36(s0)
    80203e00:	0000c797          	auipc	a5,0xc
    80203e04:	6c878793          	addi	a5,a5,1736 # 802104c8 <proc_list>
    80203e08:	fef43423          	sd	a5,-24(s0)
    80203e0c:	0380006f          	j	80203e44 <kill+0x58>
    80203e10:	fe843783          	ld	a5,-24(s0)
    80203e14:	0987a703          	lw	a4,152(a5)
    80203e18:	fdc42783          	lw	a5,-36(s0)
    80203e1c:	0007879b          	sext.w	a5,a5
    80203e20:	00e79c63          	bne	a5,a4,80203e38 <kill+0x4c>
    80203e24:	fe843783          	ld	a5,-24(s0)
    80203e28:	00100713          	li	a4,1
    80203e2c:	08e7ae23          	sw	a4,156(a5)
    80203e30:	00000793          	li	a5,0
    80203e34:	0240006f          	j	80203e58 <kill+0x6c>
    80203e38:	fe843783          	ld	a5,-24(s0)
    80203e3c:	10078793          	addi	a5,a5,256
    80203e40:	fef43423          	sd	a5,-24(s0)
    80203e44:	fe843703          	ld	a4,-24(s0)
    80203e48:	0000d797          	auipc	a5,0xd
    80203e4c:	08078793          	addi	a5,a5,128 # 80210ec8 <kernel_ctxt>
    80203e50:	fcf760e3          	bltu	a4,a5,80203e10 <kill+0x24>
    80203e54:	fff00793          	li	a5,-1
    80203e58:	00078513          	mv	a0,a5
    80203e5c:	02813403          	ld	s0,40(sp)
    80203e60:	03010113          	addi	sp,sp,48
    80203e64:	00008067          	ret

0000000080203e68 <sleep>:
    80203e68:	fe010113          	addi	sp,sp,-32
    80203e6c:	00113c23          	sd	ra,24(sp)
    80203e70:	00813823          	sd	s0,16(sp)
    80203e74:	02010413          	addi	s0,sp,32
    80203e78:	fea43423          	sd	a0,-24(s0)
    80203e7c:	feb43023          	sd	a1,-32(s0)
    80203e80:	00009797          	auipc	a5,0x9
    80203e84:	1a078793          	addi	a5,a5,416 # 8020d020 <proc_ptr>
    80203e88:	0007b783          	ld	a5,0(a5)
    80203e8c:	00400713          	li	a4,4
    80203e90:	08e7aa23          	sw	a4,148(a5)
    80203e94:	00009797          	auipc	a5,0x9
    80203e98:	18c78793          	addi	a5,a5,396 # 8020d020 <proc_ptr>
    80203e9c:	0007b783          	ld	a5,0(a5)
    80203ea0:	fe843703          	ld	a4,-24(s0)
    80203ea4:	0ae7b023          	sd	a4,160(a5)
    80203ea8:	fe043503          	ld	a0,-32(s0)
    80203eac:	bc8ff0ef          	jal	ra,80203274 <release>
    80203eb0:	ae1ff0ef          	jal	ra,80203990 <sched>
    80203eb4:	fe043503          	ld	a0,-32(s0)
    80203eb8:	b80ff0ef          	jal	ra,80203238 <acquire>
    80203ebc:	00000013          	nop
    80203ec0:	01813083          	ld	ra,24(sp)
    80203ec4:	01013403          	ld	s0,16(sp)
    80203ec8:	02010113          	addi	sp,sp,32
    80203ecc:	00008067          	ret

0000000080203ed0 <wakeup>:
    80203ed0:	fd010113          	addi	sp,sp,-48
    80203ed4:	02813423          	sd	s0,40(sp)
    80203ed8:	03010413          	addi	s0,sp,48
    80203edc:	fca43c23          	sd	a0,-40(s0)
    80203ee0:	fe042623          	sw	zero,-20(s0)
    80203ee4:	0880006f          	j	80203f6c <wakeup+0x9c>
    80203ee8:	0000c717          	auipc	a4,0xc
    80203eec:	5e070713          	addi	a4,a4,1504 # 802104c8 <proc_list>
    80203ef0:	fec42783          	lw	a5,-20(s0)
    80203ef4:	00879793          	slli	a5,a5,0x8
    80203ef8:	00f707b3          	add	a5,a4,a5
    80203efc:	0947a783          	lw	a5,148(a5)
    80203f00:	00078713          	mv	a4,a5
    80203f04:	00400793          	li	a5,4
    80203f08:	04f71c63          	bne	a4,a5,80203f60 <wakeup+0x90>
    80203f0c:	0000c717          	auipc	a4,0xc
    80203f10:	5bc70713          	addi	a4,a4,1468 # 802104c8 <proc_list>
    80203f14:	fec42783          	lw	a5,-20(s0)
    80203f18:	00879793          	slli	a5,a5,0x8
    80203f1c:	00f707b3          	add	a5,a4,a5
    80203f20:	0a07b703          	ld	a4,160(a5)
    80203f24:	fd843783          	ld	a5,-40(s0)
    80203f28:	02f71c63          	bne	a4,a5,80203f60 <wakeup+0x90>
    80203f2c:	0000c717          	auipc	a4,0xc
    80203f30:	59c70713          	addi	a4,a4,1436 # 802104c8 <proc_list>
    80203f34:	fec42783          	lw	a5,-20(s0)
    80203f38:	00879793          	slli	a5,a5,0x8
    80203f3c:	00f707b3          	add	a5,a4,a5
    80203f40:	00200713          	li	a4,2
    80203f44:	08e7aa23          	sw	a4,148(a5)
    80203f48:	0000c717          	auipc	a4,0xc
    80203f4c:	58070713          	addi	a4,a4,1408 # 802104c8 <proc_list>
    80203f50:	fec42783          	lw	a5,-20(s0)
    80203f54:	00879793          	slli	a5,a5,0x8
    80203f58:	00f707b3          	add	a5,a4,a5
    80203f5c:	0a07b023          	sd	zero,160(a5)
    80203f60:	fec42783          	lw	a5,-20(s0)
    80203f64:	0017879b          	addiw	a5,a5,1
    80203f68:	fef42623          	sw	a5,-20(s0)
    80203f6c:	fec42783          	lw	a5,-20(s0)
    80203f70:	0007871b          	sext.w	a4,a5
    80203f74:	00900793          	li	a5,9
    80203f78:	f6e7d8e3          	bge	a5,a4,80203ee8 <wakeup+0x18>
    80203f7c:	00000013          	nop
    80203f80:	00000013          	nop
    80203f84:	02813403          	ld	s0,40(sp)
    80203f88:	03010113          	addi	sp,sp,48
    80203f8c:	00008067          	ret

0000000080203f90 <memset>:
    80203f90:	fd010113          	addi	sp,sp,-48
    80203f94:	02113423          	sd	ra,40(sp)
    80203f98:	02813023          	sd	s0,32(sp)
    80203f9c:	03010413          	addi	s0,sp,48
    80203fa0:	fca43c23          	sd	a0,-40(s0)
    80203fa4:	00058793          	mv	a5,a1
    80203fa8:	00060713          	mv	a4,a2
    80203fac:	fcf42a23          	sw	a5,-44(s0)
    80203fb0:	00070793          	mv	a5,a4
    80203fb4:	fcf42823          	sw	a5,-48(s0)
    80203fb8:	fd843783          	ld	a5,-40(s0)
    80203fbc:	fef43423          	sd	a5,-24(s0)
    80203fc0:	fe843783          	ld	a5,-24(s0)
    80203fc4:	02079663          	bnez	a5,80203ff0 <memset+0x60>
    80203fc8:	00003517          	auipc	a0,0x3
    80203fcc:	70850513          	addi	a0,a0,1800 # 802076d0 <fault_info+0x278>
    80203fd0:	cc8fc0ef          	jal	ra,80200498 <panic>
    80203fd4:	01c0006f          	j	80203ff0 <memset+0x60>
    80203fd8:	fe843783          	ld	a5,-24(s0)
    80203fdc:	00178713          	addi	a4,a5,1
    80203fe0:	fee43423          	sd	a4,-24(s0)
    80203fe4:	fd442703          	lw	a4,-44(s0)
    80203fe8:	0ff77713          	andi	a4,a4,255
    80203fec:	00e78023          	sb	a4,0(a5)
    80203ff0:	fd042783          	lw	a5,-48(s0)
    80203ff4:	fff7871b          	addiw	a4,a5,-1
    80203ff8:	fce42823          	sw	a4,-48(s0)
    80203ffc:	fc079ee3          	bnez	a5,80203fd8 <memset+0x48>
    80204000:	fd843783          	ld	a5,-40(s0)
    80204004:	00078513          	mv	a0,a5
    80204008:	02813083          	ld	ra,40(sp)
    8020400c:	02013403          	ld	s0,32(sp)
    80204010:	03010113          	addi	sp,sp,48
    80204014:	00008067          	ret

0000000080204018 <memmove>:
    80204018:	fc010113          	addi	sp,sp,-64
    8020401c:	02813c23          	sd	s0,56(sp)
    80204020:	04010413          	addi	s0,sp,64
    80204024:	fca43c23          	sd	a0,-40(s0)
    80204028:	fcb43823          	sd	a1,-48(s0)
    8020402c:	00060793          	mv	a5,a2
    80204030:	fcf42623          	sw	a5,-52(s0)
    80204034:	fcc42783          	lw	a5,-52(s0)
    80204038:	0007879b          	sext.w	a5,a5
    8020403c:	00079663          	bnez	a5,80204048 <memmove+0x30>
    80204040:	fd843783          	ld	a5,-40(s0)
    80204044:	0c80006f          	j	8020410c <memmove+0xf4>
    80204048:	fd043783          	ld	a5,-48(s0)
    8020404c:	fef43423          	sd	a5,-24(s0)
    80204050:	fd843783          	ld	a5,-40(s0)
    80204054:	fef43023          	sd	a5,-32(s0)
    80204058:	fe843703          	ld	a4,-24(s0)
    8020405c:	fe043783          	ld	a5,-32(s0)
    80204060:	08f77c63          	bgeu	a4,a5,802040f8 <memmove+0xe0>
    80204064:	fcc42783          	lw	a5,-52(s0)
    80204068:	fe843703          	ld	a4,-24(s0)
    8020406c:	00f707b3          	add	a5,a4,a5
    80204070:	fe043703          	ld	a4,-32(s0)
    80204074:	08f77263          	bgeu	a4,a5,802040f8 <memmove+0xe0>
    80204078:	fcc42783          	lw	a5,-52(s0)
    8020407c:	fe843703          	ld	a4,-24(s0)
    80204080:	00f707b3          	add	a5,a4,a5
    80204084:	fef43423          	sd	a5,-24(s0)
    80204088:	fcc42783          	lw	a5,-52(s0)
    8020408c:	fe043703          	ld	a4,-32(s0)
    80204090:	00f707b3          	add	a5,a4,a5
    80204094:	fef43023          	sd	a5,-32(s0)
    80204098:	02c0006f          	j	802040c4 <memmove+0xac>
    8020409c:	fe843783          	ld	a5,-24(s0)
    802040a0:	fff78793          	addi	a5,a5,-1
    802040a4:	fef43423          	sd	a5,-24(s0)
    802040a8:	fe043783          	ld	a5,-32(s0)
    802040ac:	fff78793          	addi	a5,a5,-1
    802040b0:	fef43023          	sd	a5,-32(s0)
    802040b4:	fe843783          	ld	a5,-24(s0)
    802040b8:	0007c703          	lbu	a4,0(a5)
    802040bc:	fe043783          	ld	a5,-32(s0)
    802040c0:	00e78023          	sb	a4,0(a5)
    802040c4:	fcc42783          	lw	a5,-52(s0)
    802040c8:	fff7871b          	addiw	a4,a5,-1
    802040cc:	fce42623          	sw	a4,-52(s0)
    802040d0:	fcf046e3          	bgtz	a5,8020409c <memmove+0x84>
    802040d4:	0340006f          	j	80204108 <memmove+0xf0>
    802040d8:	fe843703          	ld	a4,-24(s0)
    802040dc:	00170793          	addi	a5,a4,1
    802040e0:	fef43423          	sd	a5,-24(s0)
    802040e4:	fe043783          	ld	a5,-32(s0)
    802040e8:	00178693          	addi	a3,a5,1
    802040ec:	fed43023          	sd	a3,-32(s0)
    802040f0:	00074703          	lbu	a4,0(a4)
    802040f4:	00e78023          	sb	a4,0(a5)
    802040f8:	fcc42783          	lw	a5,-52(s0)
    802040fc:	fff7871b          	addiw	a4,a5,-1
    80204100:	fce42623          	sw	a4,-52(s0)
    80204104:	fcf04ae3          	bgtz	a5,802040d8 <memmove+0xc0>
    80204108:	fd843783          	ld	a5,-40(s0)
    8020410c:	00078513          	mv	a0,a5
    80204110:	03813403          	ld	s0,56(sp)
    80204114:	04010113          	addi	sp,sp,64
    80204118:	00008067          	ret

000000008020411c <memcpy>:
    8020411c:	fd010113          	addi	sp,sp,-48
    80204120:	02113423          	sd	ra,40(sp)
    80204124:	02813023          	sd	s0,32(sp)
    80204128:	03010413          	addi	s0,sp,48
    8020412c:	fea43423          	sd	a0,-24(s0)
    80204130:	feb43023          	sd	a1,-32(s0)
    80204134:	00060793          	mv	a5,a2
    80204138:	fcf42e23          	sw	a5,-36(s0)
    8020413c:	fdc42783          	lw	a5,-36(s0)
    80204140:	00078613          	mv	a2,a5
    80204144:	fe043583          	ld	a1,-32(s0)
    80204148:	fe843503          	ld	a0,-24(s0)
    8020414c:	ecdff0ef          	jal	ra,80204018 <memmove>
    80204150:	00050793          	mv	a5,a0
    80204154:	00078513          	mv	a0,a5
    80204158:	02813083          	ld	ra,40(sp)
    8020415c:	02013403          	ld	s0,32(sp)
    80204160:	03010113          	addi	sp,sp,48
    80204164:	00008067          	ret

0000000080204168 <strncmp>:
    80204168:	fd010113          	addi	sp,sp,-48
    8020416c:	02813423          	sd	s0,40(sp)
    80204170:	03010413          	addi	s0,sp,48
    80204174:	fea43423          	sd	a0,-24(s0)
    80204178:	feb43023          	sd	a1,-32(s0)
    8020417c:	00060793          	mv	a5,a2
    80204180:	fcf42e23          	sw	a5,-36(s0)
    80204184:	0280006f          	j	802041ac <strncmp+0x44>
    80204188:	fdc42783          	lw	a5,-36(s0)
    8020418c:	fff7879b          	addiw	a5,a5,-1
    80204190:	fcf42e23          	sw	a5,-36(s0)
    80204194:	fe843783          	ld	a5,-24(s0)
    80204198:	00178793          	addi	a5,a5,1
    8020419c:	fef43423          	sd	a5,-24(s0)
    802041a0:	fe043783          	ld	a5,-32(s0)
    802041a4:	00178793          	addi	a5,a5,1
    802041a8:	fef43023          	sd	a5,-32(s0)
    802041ac:	fdc42783          	lw	a5,-36(s0)
    802041b0:	0007879b          	sext.w	a5,a5
    802041b4:	02078263          	beqz	a5,802041d8 <strncmp+0x70>
    802041b8:	fe843783          	ld	a5,-24(s0)
    802041bc:	0007c783          	lbu	a5,0(a5)
    802041c0:	00078c63          	beqz	a5,802041d8 <strncmp+0x70>
    802041c4:	fe843783          	ld	a5,-24(s0)
    802041c8:	0007c703          	lbu	a4,0(a5)
    802041cc:	fe043783          	ld	a5,-32(s0)
    802041d0:	0007c783          	lbu	a5,0(a5)
    802041d4:	faf70ae3          	beq	a4,a5,80204188 <strncmp+0x20>
    802041d8:	fdc42783          	lw	a5,-36(s0)
    802041dc:	0007879b          	sext.w	a5,a5
    802041e0:	00079663          	bnez	a5,802041ec <strncmp+0x84>
    802041e4:	00000793          	li	a5,0
    802041e8:	0240006f          	j	8020420c <strncmp+0xa4>
    802041ec:	fe843783          	ld	a5,-24(s0)
    802041f0:	0007c783          	lbu	a5,0(a5)
    802041f4:	0007871b          	sext.w	a4,a5
    802041f8:	fe043783          	ld	a5,-32(s0)
    802041fc:	0007c783          	lbu	a5,0(a5)
    80204200:	0007879b          	sext.w	a5,a5
    80204204:	40f707bb          	subw	a5,a4,a5
    80204208:	0007879b          	sext.w	a5,a5
    8020420c:	00078513          	mv	a0,a5
    80204210:	02813403          	ld	s0,40(sp)
    80204214:	03010113          	addi	sp,sp,48
    80204218:	00008067          	ret

000000008020421c <inode_which_block>:
    8020421c:	fd010113          	addi	sp,sp,-48
    80204220:	02813423          	sd	s0,40(sp)
    80204224:	02913023          	sd	s1,32(sp)
    80204228:	03010413          	addi	s0,sp,48
    8020422c:	00050793          	mv	a5,a0
    80204230:	00058493          	mv	s1,a1
    80204234:	fcf42e23          	sw	a5,-36(s0)
    80204238:	fdc42703          	lw	a4,-36(s0)
    8020423c:	00c00793          	li	a5,12
    80204240:	02f757bb          	divuw	a5,a4,a5
    80204244:	0007871b          	sext.w	a4,a5
    80204248:	0184a783          	lw	a5,24(s1)
    8020424c:	00f707bb          	addw	a5,a4,a5
    80204250:	fef42623          	sw	a5,-20(s0)
    80204254:	fec42783          	lw	a5,-20(s0)
    80204258:	00078513          	mv	a0,a5
    8020425c:	02813403          	ld	s0,40(sp)
    80204260:	02013483          	ld	s1,32(sp)
    80204264:	03010113          	addi	sp,sp,48
    80204268:	00008067          	ret

000000008020426c <rd_inode>:
    8020426c:	fb010113          	addi	sp,sp,-80
    80204270:	04113423          	sd	ra,72(sp)
    80204274:	04813023          	sd	s0,64(sp)
    80204278:	05010413          	addi	s0,sp,80
    8020427c:	00050793          	mv	a5,a0
    80204280:	fcb43823          	sd	a1,-48(s0)
    80204284:	fcf42e23          	sw	a5,-36(s0)
    80204288:	e78fc0ef          	jal	ra,80200900 <kalloc>
    8020428c:	fea43423          	sd	a0,-24(s0)
    80204290:	fe843783          	ld	a5,-24(s0)
    80204294:	00100713          	li	a4,1
    80204298:	00e7a423          	sw	a4,8(a5)
    8020429c:	0000d797          	auipc	a5,0xd
    802042a0:	d2c78793          	addi	a5,a5,-724 # 80210fc8 <sb>
    802042a4:	0007a883          	lw	a7,0(a5)
    802042a8:	0047a803          	lw	a6,4(a5)
    802042ac:	0087a503          	lw	a0,8(a5)
    802042b0:	00c7a583          	lw	a1,12(a5)
    802042b4:	0107a603          	lw	a2,16(a5)
    802042b8:	0147a683          	lw	a3,20(a5)
    802042bc:	0187a703          	lw	a4,24(a5)
    802042c0:	01c7a783          	lw	a5,28(a5)
    802042c4:	fb142823          	sw	a7,-80(s0)
    802042c8:	fb042a23          	sw	a6,-76(s0)
    802042cc:	faa42c23          	sw	a0,-72(s0)
    802042d0:	fab42e23          	sw	a1,-68(s0)
    802042d4:	fcc42023          	sw	a2,-64(s0)
    802042d8:	fcd42223          	sw	a3,-60(s0)
    802042dc:	fce42423          	sw	a4,-56(s0)
    802042e0:	fcf42623          	sw	a5,-52(s0)
    802042e4:	fb040713          	addi	a4,s0,-80
    802042e8:	fdc42783          	lw	a5,-36(s0)
    802042ec:	00070593          	mv	a1,a4
    802042f0:	00078513          	mv	a0,a5
    802042f4:	f29ff0ef          	jal	ra,8020421c <inode_which_block>
    802042f8:	00050793          	mv	a5,a0
    802042fc:	0007871b          	sext.w	a4,a5
    80204300:	fe843783          	ld	a5,-24(s0)
    80204304:	00e7a623          	sw	a4,12(a5)
    80204308:	fe843783          	ld	a5,-24(s0)
    8020430c:	0007a023          	sw	zero,0(a5)
    80204310:	fe843783          	ld	a5,-24(s0)
    80204314:	00100713          	li	a4,1
    80204318:	00e7a823          	sw	a4,16(a5)
    8020431c:	00000593          	li	a1,0
    80204320:	fe843503          	ld	a0,-24(s0)
    80204324:	bd8fd0ef          	jal	ra,802016fc <virtio_disk_rw>
    80204328:	fe843783          	ld	a5,-24(s0)
    8020432c:	02878713          	addi	a4,a5,40
    80204330:	fdc42683          	lw	a3,-36(s0)
    80204334:	00c00793          	li	a5,12
    80204338:	02f6f7bb          	remuw	a5,a3,a5
    8020433c:	0007879b          	sext.w	a5,a5
    80204340:	02079793          	slli	a5,a5,0x20
    80204344:	0207d793          	srli	a5,a5,0x20
    80204348:	00679793          	slli	a5,a5,0x6
    8020434c:	00f707b3          	add	a5,a4,a5
    80204350:	fef43023          	sd	a5,-32(s0)
    80204354:	fd043783          	ld	a5,-48(s0)
    80204358:	00100713          	li	a4,1
    8020435c:	00e7a023          	sw	a4,0(a5)
    80204360:	fd043783          	ld	a5,-48(s0)
    80204364:	fdc42703          	lw	a4,-36(s0)
    80204368:	00e7a223          	sw	a4,4(a5)
    8020436c:	fd043783          	ld	a5,-48(s0)
    80204370:	fe043703          	ld	a4,-32(s0)
    80204374:	01078793          	addi	a5,a5,16
    80204378:	00070693          	mv	a3,a4
    8020437c:	04000713          	li	a4,64
    80204380:	00070613          	mv	a2,a4
    80204384:	00068593          	mv	a1,a3
    80204388:	00078513          	mv	a0,a5
    8020438c:	d91ff0ef          	jal	ra,8020411c <memcpy>
    80204390:	fe843503          	ld	a0,-24(s0)
    80204394:	c9cfc0ef          	jal	ra,80200830 <kfree>
    80204398:	00000013          	nop
    8020439c:	04813083          	ld	ra,72(sp)
    802043a0:	04013403          	ld	s0,64(sp)
    802043a4:	05010113          	addi	sp,sp,80
    802043a8:	00008067          	ret

00000000802043ac <read_sb>:
    802043ac:	fd010113          	addi	sp,sp,-48
    802043b0:	02113423          	sd	ra,40(sp)
    802043b4:	02813023          	sd	s0,32(sp)
    802043b8:	03010413          	addi	s0,sp,48
    802043bc:	fca43c23          	sd	a0,-40(s0)
    802043c0:	d40fc0ef          	jal	ra,80200900 <kalloc>
    802043c4:	fea43423          	sd	a0,-24(s0)
    802043c8:	fe843783          	ld	a5,-24(s0)
    802043cc:	00079863          	bnez	a5,802043dc <read_sb+0x30>
    802043d0:	00003517          	auipc	a0,0x3
    802043d4:	31050513          	addi	a0,a0,784 # 802076e0 <fault_info+0x288>
    802043d8:	8c0fc0ef          	jal	ra,80200498 <panic>
    802043dc:	fe843783          	ld	a5,-24(s0)
    802043e0:	00100713          	li	a4,1
    802043e4:	00e7a423          	sw	a4,8(a5)
    802043e8:	fe843783          	ld	a5,-24(s0)
    802043ec:	00100713          	li	a4,1
    802043f0:	00e7a623          	sw	a4,12(a5)
    802043f4:	fe843783          	ld	a5,-24(s0)
    802043f8:	0007a023          	sw	zero,0(a5)
    802043fc:	fe843783          	ld	a5,-24(s0)
    80204400:	00100713          	li	a4,1
    80204404:	00e7a823          	sw	a4,16(a5)
    80204408:	00000593          	li	a1,0
    8020440c:	fe843503          	ld	a0,-24(s0)
    80204410:	aecfd0ef          	jal	ra,802016fc <virtio_disk_rw>
    80204414:	fe843783          	ld	a5,-24(s0)
    80204418:	02878793          	addi	a5,a5,40
    8020441c:	02000613          	li	a2,32
    80204420:	00078593          	mv	a1,a5
    80204424:	fd843503          	ld	a0,-40(s0)
    80204428:	bf1ff0ef          	jal	ra,80204018 <memmove>
    8020442c:	fe843503          	ld	a0,-24(s0)
    80204430:	c00fc0ef          	jal	ra,80200830 <kfree>
    80204434:	00000013          	nop
    80204438:	02813083          	ld	ra,40(sp)
    8020443c:	02013403          	ld	s0,32(sp)
    80204440:	03010113          	addi	sp,sp,48
    80204444:	00008067          	ret

0000000080204448 <fs_init>:
    80204448:	ff010113          	addi	sp,sp,-16
    8020444c:	00113423          	sd	ra,8(sp)
    80204450:	00813023          	sd	s0,0(sp)
    80204454:	01010413          	addi	s0,sp,16
    80204458:	0000d517          	auipc	a0,0xd
    8020445c:	b7050513          	addi	a0,a0,-1168 # 80210fc8 <sb>
    80204460:	f4dff0ef          	jal	ra,802043ac <read_sb>
    80204464:	0000d797          	auipc	a5,0xd
    80204468:	b6478793          	addi	a5,a5,-1180 # 80210fc8 <sb>
    8020446c:	0007a783          	lw	a5,0(a5)
    80204470:	00078713          	mv	a4,a5
    80204474:	403027b7          	lui	a5,0x40302
    80204478:	01078793          	addi	a5,a5,16 # 40302010 <_start-0x3fefdff0>
    8020447c:	00f70a63          	beq	a4,a5,80204490 <fs_init+0x48>
    80204480:	00003517          	auipc	a0,0x3
    80204484:	27050513          	addi	a0,a0,624 # 802076f0 <fault_info+0x298>
    80204488:	e81fb0ef          	jal	ra,80200308 <printf>
    8020448c:	03c0006f          	j	802044c8 <fs_init+0x80>
    80204490:	0000d797          	auipc	a5,0xd
    80204494:	b3878793          	addi	a5,a5,-1224 # 80210fc8 <sb>
    80204498:	0187a783          	lw	a5,24(a5)
    8020449c:	00078593          	mv	a1,a5
    802044a0:	00003517          	auipc	a0,0x3
    802044a4:	27850513          	addi	a0,a0,632 # 80207718 <fault_info+0x2c0>
    802044a8:	e61fb0ef          	jal	ra,80200308 <printf>
    802044ac:	0000d797          	auipc	a5,0xd
    802044b0:	b1c78793          	addi	a5,a5,-1252 # 80210fc8 <sb>
    802044b4:	0147a783          	lw	a5,20(a5)
    802044b8:	00078593          	mv	a1,a5
    802044bc:	00003517          	auipc	a0,0x3
    802044c0:	27450513          	addi	a0,a0,628 # 80207730 <fault_info+0x2d8>
    802044c4:	e45fb0ef          	jal	ra,80200308 <printf>
    802044c8:	00000013          	nop
    802044cc:	00813083          	ld	ra,8(sp)
    802044d0:	00013403          	ld	s0,0(sp)
    802044d4:	01010113          	addi	sp,sp,16
    802044d8:	00008067          	ret

00000000802044dc <get_nxt_name>:
    802044dc:	fd010113          	addi	sp,sp,-48
    802044e0:	02113423          	sd	ra,40(sp)
    802044e4:	02813023          	sd	s0,32(sp)
    802044e8:	03010413          	addi	s0,sp,48
    802044ec:	fca43c23          	sd	a0,-40(s0)
    802044f0:	fcb43823          	sd	a1,-48(s0)
    802044f4:	fe042423          	sw	zero,-24(s0)
    802044f8:	fe042623          	sw	zero,-20(s0)
    802044fc:	0200006f          	j	8020451c <get_nxt_name+0x40>
    80204500:	fec42783          	lw	a5,-20(s0)
    80204504:	fd043703          	ld	a4,-48(s0)
    80204508:	00f707b3          	add	a5,a4,a5
    8020450c:	00078023          	sb	zero,0(a5)
    80204510:	fec42783          	lw	a5,-20(s0)
    80204514:	0017879b          	addiw	a5,a5,1
    80204518:	fef42623          	sw	a5,-20(s0)
    8020451c:	fec42783          	lw	a5,-20(s0)
    80204520:	0007871b          	sext.w	a4,a5
    80204524:	00d00793          	li	a5,13
    80204528:	fce7dce3          	bge	a5,a4,80204500 <get_nxt_name+0x24>
    8020452c:	fd843783          	ld	a5,-40(s0)
    80204530:	0007c783          	lbu	a5,0(a5)
    80204534:	00079663          	bnez	a5,80204540 <get_nxt_name+0x64>
    80204538:	00000793          	li	a5,0
    8020453c:	08c0006f          	j	802045c8 <get_nxt_name+0xec>
    80204540:	fd843783          	ld	a5,-40(s0)
    80204544:	0007c783          	lbu	a5,0(a5)
    80204548:	00078713          	mv	a4,a5
    8020454c:	02f00793          	li	a5,47
    80204550:	00f71e63          	bne	a4,a5,8020456c <get_nxt_name+0x90>
    80204554:	fd843783          	ld	a5,-40(s0)
    80204558:	00178793          	addi	a5,a5,1
    8020455c:	fcf43c23          	sd	a5,-40(s0)
    80204560:	fd843783          	ld	a5,-40(s0)
    80204564:	fef43023          	sd	a5,-32(s0)
    80204568:	0180006f          	j	80204580 <get_nxt_name+0xa4>
    8020456c:	00000793          	li	a5,0
    80204570:	0580006f          	j	802045c8 <get_nxt_name+0xec>
    80204574:	fd843783          	ld	a5,-40(s0)
    80204578:	00178793          	addi	a5,a5,1
    8020457c:	fcf43c23          	sd	a5,-40(s0)
    80204580:	fd843783          	ld	a5,-40(s0)
    80204584:	0007c783          	lbu	a5,0(a5)
    80204588:	00078713          	mv	a4,a5
    8020458c:	02f00793          	li	a5,47
    80204590:	00f70863          	beq	a4,a5,802045a0 <get_nxt_name+0xc4>
    80204594:	fd843783          	ld	a5,-40(s0)
    80204598:	0007c783          	lbu	a5,0(a5)
    8020459c:	fc079ce3          	bnez	a5,80204574 <get_nxt_name+0x98>
    802045a0:	fd843703          	ld	a4,-40(s0)
    802045a4:	fe043783          	ld	a5,-32(s0)
    802045a8:	40f707b3          	sub	a5,a4,a5
    802045ac:	fef42423          	sw	a5,-24(s0)
    802045b0:	fe842783          	lw	a5,-24(s0)
    802045b4:	00078613          	mv	a2,a5
    802045b8:	fe043583          	ld	a1,-32(s0)
    802045bc:	fd043503          	ld	a0,-48(s0)
    802045c0:	a59ff0ef          	jal	ra,80204018 <memmove>
    802045c4:	fd843783          	ld	a5,-40(s0)
    802045c8:	00078513          	mv	a0,a5
    802045cc:	02813083          	ld	ra,40(sp)
    802045d0:	02013403          	ld	s0,32(sp)
    802045d4:	03010113          	addi	sp,sp,48
    802045d8:	00008067          	ret

00000000802045dc <get_inode>:
    802045dc:	f6010113          	addi	sp,sp,-160
    802045e0:	08113c23          	sd	ra,152(sp)
    802045e4:	08813823          	sd	s0,144(sp)
    802045e8:	0a010413          	addi	s0,sp,160
    802045ec:	f6a43423          	sd	a0,-152(s0)
    802045f0:	f6b43023          	sd	a1,-160(s0)
    802045f4:	f6843783          	ld	a5,-152(s0)
    802045f8:	fef43423          	sd	a5,-24(s0)
    802045fc:	fe042023          	sw	zero,-32(s0)
    80204600:	fe843783          	ld	a5,-24(s0)
    80204604:	14079a63          	bnez	a5,80204758 <get_inode+0x17c>
    80204608:	00003517          	auipc	a0,0x3
    8020460c:	13850513          	addi	a0,a0,312 # 80207740 <fault_info+0x2e8>
    80204610:	cf9fb0ef          	jal	ra,80200308 <printf>
    80204614:	00000793          	li	a5,0
    80204618:	1640006f          	j	8020477c <get_inode+0x1a0>
    8020461c:	fc040793          	addi	a5,s0,-64
    80204620:	00078593          	mv	a1,a5
    80204624:	fe843503          	ld	a0,-24(s0)
    80204628:	eb5ff0ef          	jal	ra,802044dc <get_nxt_name>
    8020462c:	fea43423          	sd	a0,-24(s0)
    80204630:	fe042783          	lw	a5,-32(s0)
    80204634:	f7040713          	addi	a4,s0,-144
    80204638:	00070593          	mv	a1,a4
    8020463c:	00078513          	mv	a0,a5
    80204640:	c2dff0ef          	jal	ra,8020426c <rd_inode>
    80204644:	fe042223          	sw	zero,-28(s0)
    80204648:	1040006f          	j	8020474c <get_inode+0x170>
    8020464c:	ab4fc0ef          	jal	ra,80200900 <kalloc>
    80204650:	fca43c23          	sd	a0,-40(s0)
    80204654:	fd843783          	ld	a5,-40(s0)
    80204658:	00100713          	li	a4,1
    8020465c:	00e7a423          	sw	a4,8(a5)
    80204660:	fe442783          	lw	a5,-28(s0)
    80204664:	41f7d71b          	sraiw	a4,a5,0x1f
    80204668:	0167571b          	srliw	a4,a4,0x16
    8020466c:	00f707bb          	addw	a5,a4,a5
    80204670:	40a7d79b          	sraiw	a5,a5,0xa
    80204674:	0007879b          	sext.w	a5,a5
    80204678:	00478793          	addi	a5,a5,4
    8020467c:	00279793          	slli	a5,a5,0x2
    80204680:	ff040713          	addi	a4,s0,-16
    80204684:	00f707b3          	add	a5,a4,a5
    80204688:	f8c7a703          	lw	a4,-116(a5)
    8020468c:	fd843783          	ld	a5,-40(s0)
    80204690:	00e7a623          	sw	a4,12(a5)
    80204694:	fd843783          	ld	a5,-40(s0)
    80204698:	0007a023          	sw	zero,0(a5)
    8020469c:	fd843783          	ld	a5,-40(s0)
    802046a0:	00100713          	li	a4,1
    802046a4:	00e7a823          	sw	a4,16(a5)
    802046a8:	00000593          	li	a1,0
    802046ac:	fd843503          	ld	a0,-40(s0)
    802046b0:	84cfd0ef          	jal	ra,802016fc <virtio_disk_rw>
    802046b4:	fe442703          	lw	a4,-28(s0)
    802046b8:	41f7579b          	sraiw	a5,a4,0x1f
    802046bc:	0167d79b          	srliw	a5,a5,0x16
    802046c0:	00f7073b          	addw	a4,a4,a5
    802046c4:	3ff77713          	andi	a4,a4,1023
    802046c8:	40f707bb          	subw	a5,a4,a5
    802046cc:	0007879b          	sext.w	a5,a5
    802046d0:	02078793          	addi	a5,a5,32
    802046d4:	fd843703          	ld	a4,-40(s0)
    802046d8:	00f707b3          	add	a5,a4,a5
    802046dc:	00878793          	addi	a5,a5,8
    802046e0:	fcf43823          	sd	a5,-48(s0)
    802046e4:	fd043783          	ld	a5,-48(s0)
    802046e8:	00278793          	addi	a5,a5,2
    802046ec:	fc040713          	addi	a4,s0,-64
    802046f0:	00e00613          	li	a2,14
    802046f4:	00070593          	mv	a1,a4
    802046f8:	00078513          	mv	a0,a5
    802046fc:	a6dff0ef          	jal	ra,80204168 <strncmp>
    80204700:	00050793          	mv	a5,a0
    80204704:	02079863          	bnez	a5,80204734 <get_inode+0x158>
    80204708:	fd043783          	ld	a5,-48(s0)
    8020470c:	0007d783          	lhu	a5,0(a5)
    80204710:	0007879b          	sext.w	a5,a5
    80204714:	f6043583          	ld	a1,-160(s0)
    80204718:	00078513          	mv	a0,a5
    8020471c:	b51ff0ef          	jal	ra,8020426c <rd_inode>
    80204720:	fd843503          	ld	a0,-40(s0)
    80204724:	90cfc0ef          	jal	ra,80200830 <kfree>
    80204728:	00000013          	nop
    8020472c:	00100793          	li	a5,1
    80204730:	04c0006f          	j	8020477c <get_inode+0x1a0>
    80204734:	fd843503          	ld	a0,-40(s0)
    80204738:	8f8fc0ef          	jal	ra,80200830 <kfree>
    8020473c:	fe442783          	lw	a5,-28(s0)
    80204740:	0107879b          	addiw	a5,a5,16
    80204744:	0007879b          	sext.w	a5,a5
    80204748:	fef42223          	sw	a5,-28(s0)
    8020474c:	f8842703          	lw	a4,-120(s0)
    80204750:	fe442783          	lw	a5,-28(s0)
    80204754:	eee7ece3          	bltu	a5,a4,8020464c <get_inode+0x70>
    80204758:	fe843783          	ld	a5,-24(s0)
    8020475c:	ec0790e3          	bnez	a5,8020461c <get_inode+0x40>
    80204760:	00003517          	auipc	a0,0x3
    80204764:	ff050513          	addi	a0,a0,-16 # 80207750 <fault_info+0x2f8>
    80204768:	ba1fb0ef          	jal	ra,80200308 <printf>
    8020476c:	00003517          	auipc	a0,0x3
    80204770:	ffc50513          	addi	a0,a0,-4 # 80207768 <fault_info+0x310>
    80204774:	b95fb0ef          	jal	ra,80200308 <printf>
    80204778:	00000793          	li	a5,0
    8020477c:	00078513          	mv	a0,a5
    80204780:	09813083          	ld	ra,152(sp)
    80204784:	09013403          	ld	s0,144(sp)
    80204788:	0a010113          	addi	sp,sp,160
    8020478c:	00008067          	ret

0000000080204790 <blknum_to_addr>:
    80204790:	fc010113          	addi	sp,sp,-64
    80204794:	02113c23          	sd	ra,56(sp)
    80204798:	02813823          	sd	s0,48(sp)
    8020479c:	04010413          	addi	s0,sp,64
    802047a0:	fca43423          	sd	a0,-56(s0)
    802047a4:	00058793          	mv	a5,a1
    802047a8:	fcf42223          	sw	a5,-60(s0)
    802047ac:	fe042623          	sw	zero,-20(s0)
    802047b0:	fc442783          	lw	a5,-60(s0)
    802047b4:	0007871b          	sext.w	a4,a5
    802047b8:	00b00793          	li	a5,11
    802047bc:	02e7e463          	bltu	a5,a4,802047e4 <blknum_to_addr+0x54>
    802047c0:	fc843703          	ld	a4,-56(s0)
    802047c4:	fc446783          	lwu	a5,-60(s0)
    802047c8:	00478793          	addi	a5,a5,4
    802047cc:	00279793          	slli	a5,a5,0x2
    802047d0:	00f707b3          	add	a5,a4,a5
    802047d4:	00c7a783          	lw	a5,12(a5)
    802047d8:	fef42623          	sw	a5,-20(s0)
    802047dc:	fec42783          	lw	a5,-20(s0)
    802047e0:	0b00006f          	j	80204890 <blknum_to_addr+0x100>
    802047e4:	91cfc0ef          	jal	ra,80200900 <kalloc>
    802047e8:	fea43023          	sd	a0,-32(s0)
    802047ec:	fc442783          	lw	a5,-60(s0)
    802047f0:	ff47879b          	addiw	a5,a5,-12
    802047f4:	fcf42223          	sw	a5,-60(s0)
    802047f8:	fc442783          	lw	a5,-60(s0)
    802047fc:	0007871b          	sext.w	a4,a5
    80204800:	0ff00793          	li	a5,255
    80204804:	06e7ee63          	bltu	a5,a4,80204880 <blknum_to_addr+0xf0>
    80204808:	fc843783          	ld	a5,-56(s0)
    8020480c:	04c7a783          	lw	a5,76(a5)
    80204810:	fef42623          	sw	a5,-20(s0)
    80204814:	fe043783          	ld	a5,-32(s0)
    80204818:	00100713          	li	a4,1
    8020481c:	00e7a423          	sw	a4,8(a5)
    80204820:	fe043783          	ld	a5,-32(s0)
    80204824:	fec42703          	lw	a4,-20(s0)
    80204828:	00e7a623          	sw	a4,12(a5)
    8020482c:	fe043783          	ld	a5,-32(s0)
    80204830:	0007a023          	sw	zero,0(a5)
    80204834:	fe043783          	ld	a5,-32(s0)
    80204838:	00100713          	li	a4,1
    8020483c:	00e7a823          	sw	a4,16(a5)
    80204840:	00000593          	li	a1,0
    80204844:	fe043503          	ld	a0,-32(s0)
    80204848:	eb5fc0ef          	jal	ra,802016fc <virtio_disk_rw>
    8020484c:	fe043783          	ld	a5,-32(s0)
    80204850:	02878793          	addi	a5,a5,40
    80204854:	fcf43c23          	sd	a5,-40(s0)
    80204858:	fc446783          	lwu	a5,-60(s0)
    8020485c:	00279793          	slli	a5,a5,0x2
    80204860:	fd843703          	ld	a4,-40(s0)
    80204864:	00f707b3          	add	a5,a4,a5
    80204868:	0007a783          	lw	a5,0(a5)
    8020486c:	fef42623          	sw	a5,-20(s0)
    80204870:	fe043503          	ld	a0,-32(s0)
    80204874:	fbdfb0ef          	jal	ra,80200830 <kfree>
    80204878:	fec42783          	lw	a5,-20(s0)
    8020487c:	0140006f          	j	80204890 <blknum_to_addr+0x100>
    80204880:	00003517          	auipc	a0,0x3
    80204884:	ef850513          	addi	a0,a0,-264 # 80207778 <fault_info+0x320>
    80204888:	c11fb0ef          	jal	ra,80200498 <panic>
    8020488c:	00000793          	li	a5,0
    80204890:	00078513          	mv	a0,a5
    80204894:	03813083          	ld	ra,56(sp)
    80204898:	03013403          	ld	s0,48(sp)
    8020489c:	04010113          	addi	sp,sp,64
    802048a0:	00008067          	ret

00000000802048a4 <read_elfhr>:
    802048a4:	fc010113          	addi	sp,sp,-64
    802048a8:	02113c23          	sd	ra,56(sp)
    802048ac:	02813823          	sd	s0,48(sp)
    802048b0:	04010413          	addi	s0,sp,64
    802048b4:	fca43c23          	sd	a0,-40(s0)
    802048b8:	fcb43823          	sd	a1,-48(s0)
    802048bc:	fcc43423          	sd	a2,-56(s0)
    802048c0:	840fc0ef          	jal	ra,80200900 <kalloc>
    802048c4:	fea43423          	sd	a0,-24(s0)
    802048c8:	fe843783          	ld	a5,-24(s0)
    802048cc:	00079863          	bnez	a5,802048dc <read_elfhr+0x38>
    802048d0:	00003517          	auipc	a0,0x3
    802048d4:	e1050513          	addi	a0,a0,-496 # 802076e0 <fault_info+0x288>
    802048d8:	bc1fb0ef          	jal	ra,80200498 <panic>
    802048dc:	fe843783          	ld	a5,-24(s0)
    802048e0:	00100713          	li	a4,1
    802048e4:	00e7a423          	sw	a4,8(a5)
    802048e8:	fc843783          	ld	a5,-56(s0)
    802048ec:	01c7a703          	lw	a4,28(a5)
    802048f0:	fe843783          	ld	a5,-24(s0)
    802048f4:	00e7a623          	sw	a4,12(a5)
    802048f8:	fe843783          	ld	a5,-24(s0)
    802048fc:	0007a023          	sw	zero,0(a5)
    80204900:	fe843783          	ld	a5,-24(s0)
    80204904:	00100713          	li	a4,1
    80204908:	00e7a823          	sw	a4,16(a5)
    8020490c:	00000593          	li	a1,0
    80204910:	fe843503          	ld	a0,-24(s0)
    80204914:	de9fc0ef          	jal	ra,802016fc <virtio_disk_rw>
    80204918:	fe843783          	ld	a5,-24(s0)
    8020491c:	0287c783          	lbu	a5,40(a5)
    80204920:	00078713          	mv	a4,a5
    80204924:	07f00793          	li	a5,127
    80204928:	04f71063          	bne	a4,a5,80204968 <read_elfhr+0xc4>
    8020492c:	fe843783          	ld	a5,-24(s0)
    80204930:	0297c783          	lbu	a5,41(a5)
    80204934:	00078713          	mv	a4,a5
    80204938:	04500793          	li	a5,69
    8020493c:	02f71663          	bne	a4,a5,80204968 <read_elfhr+0xc4>
    80204940:	fe843783          	ld	a5,-24(s0)
    80204944:	02a7c783          	lbu	a5,42(a5)
    80204948:	00078713          	mv	a4,a5
    8020494c:	04c00793          	li	a5,76
    80204950:	00f71c63          	bne	a4,a5,80204968 <read_elfhr+0xc4>
    80204954:	fe843783          	ld	a5,-24(s0)
    80204958:	02b7c783          	lbu	a5,43(a5)
    8020495c:	00078713          	mv	a4,a5
    80204960:	04600793          	li	a5,70
    80204964:	00f70a63          	beq	a4,a5,80204978 <read_elfhr+0xd4>
    80204968:	00003517          	auipc	a0,0x3
    8020496c:	e2050513          	addi	a0,a0,-480 # 80207788 <fault_info+0x330>
    80204970:	999fb0ef          	jal	ra,80200308 <printf>
    80204974:	0e40006f          	j	80204a58 <read_elfhr+0x1b4>
    80204978:	fe843783          	ld	a5,-24(s0)
    8020497c:	02878713          	addi	a4,a5,40
    80204980:	fd843783          	ld	a5,-40(s0)
    80204984:	00073303          	ld	t1,0(a4)
    80204988:	00873883          	ld	a7,8(a4)
    8020498c:	01073803          	ld	a6,16(a4)
    80204990:	01873503          	ld	a0,24(a4)
    80204994:	02073583          	ld	a1,32(a4)
    80204998:	02873603          	ld	a2,40(a4)
    8020499c:	03073683          	ld	a3,48(a4)
    802049a0:	03873703          	ld	a4,56(a4)
    802049a4:	0067b023          	sd	t1,0(a5)
    802049a8:	0117b423          	sd	a7,8(a5)
    802049ac:	0107b823          	sd	a6,16(a5)
    802049b0:	00a7bc23          	sd	a0,24(a5)
    802049b4:	02b7b023          	sd	a1,32(a5)
    802049b8:	02c7b423          	sd	a2,40(a5)
    802049bc:	02d7b823          	sd	a3,48(a5)
    802049c0:	02e7bc23          	sd	a4,56(a5)
    802049c4:	fe843783          	ld	a5,-24(s0)
    802049c8:	02878793          	addi	a5,a5,40
    802049cc:	04078713          	addi	a4,a5,64
    802049d0:	fd043783          	ld	a5,-48(s0)
    802049d4:	00073883          	ld	a7,0(a4)
    802049d8:	00873803          	ld	a6,8(a4)
    802049dc:	01073503          	ld	a0,16(a4)
    802049e0:	01873583          	ld	a1,24(a4)
    802049e4:	02073603          	ld	a2,32(a4)
    802049e8:	02873683          	ld	a3,40(a4)
    802049ec:	03073703          	ld	a4,48(a4)
    802049f0:	0117b023          	sd	a7,0(a5)
    802049f4:	0107b423          	sd	a6,8(a5)
    802049f8:	00a7b823          	sd	a0,16(a5)
    802049fc:	00b7bc23          	sd	a1,24(a5)
    80204a00:	02c7b023          	sd	a2,32(a5)
    80204a04:	02d7b423          	sd	a3,40(a5)
    80204a08:	02e7b823          	sd	a4,48(a5)
    80204a0c:	fe843783          	ld	a5,-24(s0)
    80204a10:	02878793          	addi	a5,a5,40
    80204a14:	07878713          	addi	a4,a5,120
    80204a18:	fd043783          	ld	a5,-48(s0)
    80204a1c:	03878793          	addi	a5,a5,56
    80204a20:	00073883          	ld	a7,0(a4)
    80204a24:	00873803          	ld	a6,8(a4)
    80204a28:	01073503          	ld	a0,16(a4)
    80204a2c:	01873583          	ld	a1,24(a4)
    80204a30:	02073603          	ld	a2,32(a4)
    80204a34:	02873683          	ld	a3,40(a4)
    80204a38:	03073703          	ld	a4,48(a4)
    80204a3c:	0117b023          	sd	a7,0(a5)
    80204a40:	0107b423          	sd	a6,8(a5)
    80204a44:	00a7b823          	sd	a0,16(a5)
    80204a48:	00b7bc23          	sd	a1,24(a5)
    80204a4c:	02c7b023          	sd	a2,32(a5)
    80204a50:	02d7b423          	sd	a3,40(a5)
    80204a54:	02e7b823          	sd	a4,48(a5)
    80204a58:	fe843503          	ld	a0,-24(s0)
    80204a5c:	dd5fb0ef          	jal	ra,80200830 <kfree>
    80204a60:	00000013          	nop
    80204a64:	03813083          	ld	ra,56(sp)
    80204a68:	03013403          	ld	s0,48(sp)
    80204a6c:	04010113          	addi	sp,sp,64
    80204a70:	00008067          	ret

0000000080204a74 <read_from_inode>:
    80204a74:	fb010113          	addi	sp,sp,-80
    80204a78:	04113423          	sd	ra,72(sp)
    80204a7c:	04813023          	sd	s0,64(sp)
    80204a80:	05010413          	addi	s0,sp,80
    80204a84:	fca43423          	sd	a0,-56(s0)
    80204a88:	fcb43023          	sd	a1,-64(s0)
    80204a8c:	fac43c23          	sd	a2,-72(s0)
    80204a90:	00068793          	mv	a5,a3
    80204a94:	faf42a23          	sw	a5,-76(s0)
    80204a98:	00070793          	mv	a5,a4
    80204a9c:	faf42823          	sw	a5,-80(s0)
    80204aa0:	fe042623          	sw	zero,-20(s0)
    80204aa4:	fb843783          	ld	a5,-72(s0)
    80204aa8:	00a7d793          	srli	a5,a5,0xa
    80204aac:	fef42423          	sw	a5,-24(s0)
    80204ab0:	fb843783          	ld	a5,-72(s0)
    80204ab4:	0007879b          	sext.w	a5,a5
    80204ab8:	3ff7f793          	andi	a5,a5,1023
    80204abc:	fef42223          	sw	a5,-28(s0)
    80204ac0:	fe042023          	sw	zero,-32(s0)
    80204ac4:	e3dfb0ef          	jal	ra,80200900 <kalloc>
    80204ac8:	fca43c23          	sd	a0,-40(s0)
    80204acc:	fe042623          	sw	zero,-20(s0)
    80204ad0:	11c0006f          	j	80204bec <read_from_inode+0x178>
    80204ad4:	fb843783          	ld	a5,-72(s0)
    80204ad8:	00a7d793          	srli	a5,a5,0xa
    80204adc:	fef42423          	sw	a5,-24(s0)
    80204ae0:	fd843783          	ld	a5,-40(s0)
    80204ae4:	00100713          	li	a4,1
    80204ae8:	00e7a423          	sw	a4,8(a5)
    80204aec:	fe842783          	lw	a5,-24(s0)
    80204af0:	00078593          	mv	a1,a5
    80204af4:	fc843503          	ld	a0,-56(s0)
    80204af8:	c99ff0ef          	jal	ra,80204790 <blknum_to_addr>
    80204afc:	00050793          	mv	a5,a0
    80204b00:	0007871b          	sext.w	a4,a5
    80204b04:	fd843783          	ld	a5,-40(s0)
    80204b08:	00e7a623          	sw	a4,12(a5)
    80204b0c:	fd843783          	ld	a5,-40(s0)
    80204b10:	0007a023          	sw	zero,0(a5)
    80204b14:	fd843783          	ld	a5,-40(s0)
    80204b18:	00100713          	li	a4,1
    80204b1c:	00e7a823          	sw	a4,16(a5)
    80204b20:	00000593          	li	a1,0
    80204b24:	fd843503          	ld	a0,-40(s0)
    80204b28:	bd5fc0ef          	jal	ra,802016fc <virtio_disk_rw>
    80204b2c:	40000713          	li	a4,1024
    80204b30:	fe442783          	lw	a5,-28(s0)
    80204b34:	40f707bb          	subw	a5,a4,a5
    80204b38:	0007879b          	sext.w	a5,a5
    80204b3c:	00078613          	mv	a2,a5
    80204b40:	fb442783          	lw	a5,-76(s0)
    80204b44:	0007869b          	sext.w	a3,a5
    80204b48:	0006071b          	sext.w	a4,a2
    80204b4c:	00d77463          	bgeu	a4,a3,80204b54 <read_from_inode+0xe0>
    80204b50:	00060793          	mv	a5,a2
    80204b54:	fef42023          	sw	a5,-32(s0)
    80204b58:	fb042783          	lw	a5,-80(s0)
    80204b5c:	0007879b          	sext.w	a5,a5
    80204b60:	02079463          	bnez	a5,80204b88 <read_from_inode+0x114>
    80204b64:	fc043703          	ld	a4,-64(s0)
    80204b68:	fd843783          	ld	a5,-40(s0)
    80204b6c:	02878793          	addi	a5,a5,40
    80204b70:	fe042683          	lw	a3,-32(s0)
    80204b74:	00068613          	mv	a2,a3
    80204b78:	00078593          	mv	a1,a5
    80204b7c:	00070513          	mv	a0,a4
    80204b80:	c98ff0ef          	jal	ra,80204018 <memmove>
    80204b84:	0380006f          	j	80204bbc <read_from_inode+0x148>
    80204b88:	00008797          	auipc	a5,0x8
    80204b8c:	49878793          	addi	a5,a5,1176 # 8020d020 <proc_ptr>
    80204b90:	0007b783          	ld	a5,0(a5)
    80204b94:	0087b503          	ld	a0,8(a5)
    80204b98:	fc043583          	ld	a1,-64(s0)
    80204b9c:	fd843783          	ld	a5,-40(s0)
    80204ba0:	02878713          	addi	a4,a5,40
    80204ba4:	fe446783          	lwu	a5,-28(s0)
    80204ba8:	00f707b3          	add	a5,a4,a5
    80204bac:	fe046703          	lwu	a4,-32(s0)
    80204bb0:	00070693          	mv	a3,a4
    80204bb4:	00078613          	mv	a2,a5
    80204bb8:	af4fc0ef          	jal	ra,80200eac <copy_to_user>
    80204bbc:	fec42703          	lw	a4,-20(s0)
    80204bc0:	fe042783          	lw	a5,-32(s0)
    80204bc4:	00f707bb          	addw	a5,a4,a5
    80204bc8:	fef42623          	sw	a5,-20(s0)
    80204bcc:	fe046783          	lwu	a5,-32(s0)
    80204bd0:	fb843703          	ld	a4,-72(s0)
    80204bd4:	00f707b3          	add	a5,a4,a5
    80204bd8:	faf43c23          	sd	a5,-72(s0)
    80204bdc:	fe046783          	lwu	a5,-32(s0)
    80204be0:	fc043703          	ld	a4,-64(s0)
    80204be4:	00f707b3          	add	a5,a4,a5
    80204be8:	fcf43023          	sd	a5,-64(s0)
    80204bec:	fec42703          	lw	a4,-20(s0)
    80204bf0:	fb442783          	lw	a5,-76(s0)
    80204bf4:	0007071b          	sext.w	a4,a4
    80204bf8:	0007879b          	sext.w	a5,a5
    80204bfc:	ecf76ce3          	bltu	a4,a5,80204ad4 <read_from_inode+0x60>
    80204c00:	fd843503          	ld	a0,-40(s0)
    80204c04:	c2dfb0ef          	jal	ra,80200830 <kfree>
    80204c08:	00000793          	li	a5,0
    80204c0c:	00078513          	mv	a0,a5
    80204c10:	04813083          	ld	ra,72(sp)
    80204c14:	04013403          	ld	s0,64(sp)
    80204c18:	05010113          	addi	sp,sp,80
    80204c1c:	00008067          	ret

0000000080204c20 <write_to_inode>:
    80204c20:	fb010113          	addi	sp,sp,-80
    80204c24:	04113423          	sd	ra,72(sp)
    80204c28:	04813023          	sd	s0,64(sp)
    80204c2c:	05010413          	addi	s0,sp,80
    80204c30:	fca43423          	sd	a0,-56(s0)
    80204c34:	fcb43023          	sd	a1,-64(s0)
    80204c38:	fac43c23          	sd	a2,-72(s0)
    80204c3c:	00068793          	mv	a5,a3
    80204c40:	faf42a23          	sw	a5,-76(s0)
    80204c44:	00070793          	mv	a5,a4
    80204c48:	faf42823          	sw	a5,-80(s0)
    80204c4c:	cb5fb0ef          	jal	ra,80200900 <kalloc>
    80204c50:	fea43423          	sd	a0,-24(s0)
    80204c54:	fe042223          	sw	zero,-28(s0)
    80204c58:	1140006f          	j	80204d6c <write_to_inode+0x14c>
    80204c5c:	fb843783          	ld	a5,-72(s0)
    80204c60:	00a7d793          	srli	a5,a5,0xa
    80204c64:	fef42023          	sw	a5,-32(s0)
    80204c68:	fb843783          	ld	a5,-72(s0)
    80204c6c:	0007879b          	sext.w	a5,a5
    80204c70:	3ff7f793          	andi	a5,a5,1023
    80204c74:	fcf42e23          	sw	a5,-36(s0)
    80204c78:	fe843783          	ld	a5,-24(s0)
    80204c7c:	00100713          	li	a4,1
    80204c80:	00e7a423          	sw	a4,8(a5)
    80204c84:	fe042783          	lw	a5,-32(s0)
    80204c88:	00078593          	mv	a1,a5
    80204c8c:	fc843503          	ld	a0,-56(s0)
    80204c90:	b01ff0ef          	jal	ra,80204790 <blknum_to_addr>
    80204c94:	00050793          	mv	a5,a0
    80204c98:	0007871b          	sext.w	a4,a5
    80204c9c:	fe843783          	ld	a5,-24(s0)
    80204ca0:	00e7a623          	sw	a4,12(a5)
    80204ca4:	fe843783          	ld	a5,-24(s0)
    80204ca8:	0007a023          	sw	zero,0(a5)
    80204cac:	fe843783          	ld	a5,-24(s0)
    80204cb0:	00100713          	li	a4,1
    80204cb4:	00e7a823          	sw	a4,16(a5)
    80204cb8:	00000593          	li	a1,0
    80204cbc:	fe843503          	ld	a0,-24(s0)
    80204cc0:	a3dfc0ef          	jal	ra,802016fc <virtio_disk_rw>
    80204cc4:	40000713          	li	a4,1024
    80204cc8:	fdc42783          	lw	a5,-36(s0)
    80204ccc:	40f707bb          	subw	a5,a4,a5
    80204cd0:	fcf42c23          	sw	a5,-40(s0)
    80204cd4:	fb442603          	lw	a2,-76(s0)
    80204cd8:	fd842783          	lw	a5,-40(s0)
    80204cdc:	0007869b          	sext.w	a3,a5
    80204ce0:	0006071b          	sext.w	a4,a2
    80204ce4:	00d77463          	bgeu	a4,a3,80204cec <write_to_inode+0xcc>
    80204ce8:	00060793          	mv	a5,a2
    80204cec:	fcf42a23          	sw	a5,-44(s0)
    80204cf0:	fb042783          	lw	a5,-80(s0)
    80204cf4:	0007879b          	sext.w	a5,a5
    80204cf8:	02079c63          	bnez	a5,80204d30 <write_to_inode+0x110>
    80204cfc:	00008797          	auipc	a5,0x8
    80204d00:	32478793          	addi	a5,a5,804 # 8020d020 <proc_ptr>
    80204d04:	0007b783          	ld	a5,0(a5)
    80204d08:	0087b503          	ld	a0,8(a5)
    80204d0c:	fe843783          	ld	a5,-24(s0)
    80204d10:	02878713          	addi	a4,a5,40
    80204d14:	fdc46783          	lwu	a5,-36(s0)
    80204d18:	00f707b3          	add	a5,a4,a5
    80204d1c:	fc043703          	ld	a4,-64(s0)
    80204d20:	fd446683          	lwu	a3,-44(s0)
    80204d24:	00070613          	mv	a2,a4
    80204d28:	00078593          	mv	a1,a5
    80204d2c:	870fc0ef          	jal	ra,80200d9c <copy_from_user>
    80204d30:	00100593          	li	a1,1
    80204d34:	fe843503          	ld	a0,-24(s0)
    80204d38:	9c5fc0ef          	jal	ra,802016fc <virtio_disk_rw>
    80204d3c:	fd446783          	lwu	a5,-44(s0)
    80204d40:	fb843703          	ld	a4,-72(s0)
    80204d44:	00f707b3          	add	a5,a4,a5
    80204d48:	faf43c23          	sd	a5,-72(s0)
    80204d4c:	fb442703          	lw	a4,-76(s0)
    80204d50:	fd442783          	lw	a5,-44(s0)
    80204d54:	40f707bb          	subw	a5,a4,a5
    80204d58:	faf42a23          	sw	a5,-76(s0)
    80204d5c:	fd446783          	lwu	a5,-44(s0)
    80204d60:	fc043703          	ld	a4,-64(s0)
    80204d64:	00f707b3          	add	a5,a4,a5
    80204d68:	fcf43023          	sd	a5,-64(s0)
    80204d6c:	fb442783          	lw	a5,-76(s0)
    80204d70:	0007879b          	sext.w	a5,a5
    80204d74:	ee0794e3          	bnez	a5,80204c5c <write_to_inode+0x3c>
    80204d78:	fe843503          	ld	a0,-24(s0)
    80204d7c:	ab5fb0ef          	jal	ra,80200830 <kfree>
    80204d80:	00000793          	li	a5,0
    80204d84:	00078513          	mv	a0,a5
    80204d88:	04813083          	ld	ra,72(sp)
    80204d8c:	04013403          	ld	s0,64(sp)
    80204d90:	05010113          	addi	sp,sp,80
    80204d94:	00008067          	ret

0000000080204d98 <loadsec>:
    80204d98:	fb010113          	addi	sp,sp,-80
    80204d9c:	04113423          	sd	ra,72(sp)
    80204da0:	04813023          	sd	s0,64(sp)
    80204da4:	05010413          	addi	s0,sp,80
    80204da8:	fca43423          	sd	a0,-56(s0)
    80204dac:	fcb43023          	sd	a1,-64(s0)
    80204db0:	fac43c23          	sd	a2,-72(s0)
    80204db4:	00068793          	mv	a5,a3
    80204db8:	faf42a23          	sw	a5,-76(s0)
    80204dbc:	00070793          	mv	a5,a4
    80204dc0:	faf42823          	sw	a5,-80(s0)
    80204dc4:	fe042423          	sw	zero,-24(s0)
    80204dc8:	fe042223          	sw	zero,-28(s0)
    80204dcc:	fe042023          	sw	zero,-32(s0)
    80204dd0:	fe042623          	sw	zero,-20(s0)
    80204dd4:	05c0006f          	j	80204e30 <loadsec+0x98>
    80204dd8:	fec42703          	lw	a4,-20(s0)
    80204ddc:	fb843783          	ld	a5,-72(s0)
    80204de0:	00f707b3          	add	a5,a4,a5
    80204de4:	00078593          	mv	a1,a5
    80204de8:	fc843503          	ld	a0,-56(s0)
    80204dec:	c91fb0ef          	jal	ra,80200a7c <va_to_pa>
    80204df0:	fca43c23          	sd	a0,-40(s0)
