	.file	"sbi_trap.c"
	.option nopic
	.attribute arch, "rv64i2p0_m2p0_a2p0_f2p0_d2p0"
	.attribute unaligned_access, 0
	.attribute stack_align, 16
	.text
.Ltext0:
	.cfi_sections	.debug_frame
	.align	2
	.type	r_mcause, @function
r_mcause:
.LFB2:
	.file 1 "include/riscv.h"
	.loc 1 49 1
	.cfi_startproc
	addi	sp,sp,-32
	.cfi_def_cfa_offset 32
	sd	s0,24(sp)
	.cfi_offset 8, -8
	addi	s0,sp,32
	.cfi_def_cfa 8, 0
	.loc 1 51 2
 #APP
# 51 "include/riscv.h" 1
	csrr a5, mcause
# 0 "" 2
 #NO_APP
	sd	a5,-24(s0)
	.loc 1 55 9
	ld	a5,-24(s0)
	.loc 1 56 1
	mv	a0,a5
	ld	s0,24(sp)
	.cfi_restore 8
	.cfi_def_cfa 2, 32
	addi	sp,sp,32
	.cfi_def_cfa_offset 0
	jr	ra
	.cfi_endproc
.LFE2:
	.size	r_mcause, .-r_mcause
	.align	2
	.type	w_mtvec, @function
w_mtvec:
.LFB12:
	.loc 1 135 1
	.cfi_startproc
	addi	sp,sp,-32
	.cfi_def_cfa_offset 32
	sd	s0,24(sp)
	.cfi_offset 8, -8
	addi	s0,sp,32
	.cfi_def_cfa 8, 0
	sd	a0,-24(s0)
	.loc 1 136 2
	ld	a5,-24(s0)
 #APP
# 136 "include/riscv.h" 1
	csrw mtvec, a5
# 0 "" 2
	.loc 1 140 1
 #NO_APP
	nop
	ld	s0,24(sp)
	.cfi_restore 8
	.cfi_def_cfa 2, 32
	addi	sp,sp,32
	.cfi_def_cfa_offset 0
	jr	ra
	.cfi_endproc
.LFE12:
	.size	w_mtvec, .-w_mtvec
	.align	2
	.type	w_mie, @function
w_mie:
.LFB13:
	.loc 1 143 1
	.cfi_startproc
	addi	sp,sp,-32
	.cfi_def_cfa_offset 32
	sd	s0,24(sp)
	.cfi_offset 8, -8
	addi	s0,sp,32
	.cfi_def_cfa 8, 0
	sd	a0,-24(s0)
	.loc 1 144 2
	ld	a5,-24(s0)
 #APP
# 144 "include/riscv.h" 1
	csrw mie, a5
# 0 "" 2
	.loc 1 148 1
 #NO_APP
	nop
	ld	s0,24(sp)
	.cfi_restore 8
	.cfi_def_cfa 2, 32
	addi	sp,sp,32
	.cfi_def_cfa_offset 0
	jr	ra
	.cfi_endproc
.LFE13:
	.size	w_mie, .-w_mie
	.align	2
	.type	w_sip, @function
w_sip:
.LFB15:
	.loc 1 159 1
	.cfi_startproc
	addi	sp,sp,-32
	.cfi_def_cfa_offset 32
	sd	s0,24(sp)
	.cfi_offset 8, -8
	addi	s0,sp,32
	.cfi_def_cfa 8, 0
	sd	a0,-24(s0)
	.loc 1 160 2
	ld	a5,-24(s0)
 #APP
# 160 "include/riscv.h" 1
	csrw sip, a5
# 0 "" 2
	.loc 1 164 1
 #NO_APP
	nop
	ld	s0,24(sp)
	.cfi_restore 8
	.cfi_def_cfa 2, 32
	addi	sp,sp,32
	.cfi_def_cfa_offset 0
	jr	ra
	.cfi_endproc
.LFE15:
	.size	w_sip, .-w_sip
	.align	2
	.type	r_mhartid, @function
r_mhartid:
.LFB19:
	.loc 1 200 1
	.cfi_startproc
	addi	sp,sp,-32
	.cfi_def_cfa_offset 32
	sd	s0,24(sp)
	.cfi_offset 8, -8
	addi	s0,sp,32
	.cfi_def_cfa 8, 0
	.loc 1 202 2
 #APP
# 202 "include/riscv.h" 1
	csrr a5, mhartid
# 0 "" 2
 #NO_APP
	sd	a5,-24(s0)
	.loc 1 206 9
	ld	a5,-24(s0)
	.loc 1 207 1
	mv	a0,a5
	ld	s0,24(sp)
	.cfi_restore 8
	.cfi_def_cfa 2, 32
	addi	sp,sp,32
	.cfi_def_cfa_offset 0
	jr	ra
	.cfi_endproc
.LFE19:
	.size	r_mhartid, .-r_mhartid
	.align	2
	.globl	sbi_trap_init
	.type	sbi_trap_init, @function
sbi_trap_init:
.LFB28:
	.file 2 "sbi/sbi_trap.c"
	.loc 2 16 1
	.cfi_startproc
	addi	sp,sp,-16
	.cfi_def_cfa_offset 16
	sd	ra,8(sp)
	sd	s0,0(sp)
	.cfi_offset 1, -8
	.cfi_offset 8, -16
	addi	s0,sp,16
	.cfi_def_cfa 8, 0
	.loc 2 17 2
	lla	a5,sbi_exception_vec
	mv	a0,a5
	call	w_mtvec
	.loc 2 18 2
	li	a0,0
	call	w_mie
	.loc 2 19 1
	nop
	ld	ra,8(sp)
	.cfi_restore 1
	ld	s0,0(sp)
	.cfi_restore 8
	.cfi_def_cfa 2, 16
	addi	sp,sp,16
	.cfi_def_cfa_offset 0
	jr	ra
	.cfi_endproc
.LFE28:
	.size	sbi_trap_init, .-sbi_trap_init
	.align	2
	.globl	sbi_ecall_handler
	.type	sbi_ecall_handler, @function
sbi_ecall_handler:
.LFB29:
	.loc 2 22 1
	.cfi_startproc
	addi	sp,sp,-32
	.cfi_def_cfa_offset 32
	sd	ra,24(sp)
	sd	s0,16(sp)
	.cfi_offset 1, -8
	.cfi_offset 8, -16
	addi	s0,sp,32
	.cfi_def_cfa 8, 0
	mv	a5,a0
	sd	a1,-32(s0)
	sw	a5,-20(s0)
	.loc 2 23 2
	lw	a5,-20(s0)
	sext.w	a4,a5
	li	a5,3
	beq	a4,a5,.L10
	lw	a5,-20(s0)
	sext.w	a4,a5
	li	a5,3
	bgt	a4,a5,.L15
	lw	a5,-20(s0)
	sext.w	a4,a5
	li	a5,1
	beq	a4,a5,.L12
	lw	a5,-20(s0)
	sext.w	a4,a5
	li	a5,2
	beq	a4,a5,.L13
	.loc 2 44 4
	j	.L15
.L12:
	.loc 2 27 23
	ld	a5,-32(s0)
	ld	a5,80(a5)
	.loc 2 27 5
	andi	a5,a5,0xff
	mv	a0,a5
	call	uart_send_char
	.loc 2 28 5
	j	.L14
.L13:
	.loc 2 33 33
	ld	a5,-32(s0)
	ld	a5,80(a5)
	.loc 2 33 5
	mv	a0,a5
	call	uart_send_string
	.loc 2 34 5
	j	.L14
.L10:
	.loc 2 39 15
	call	r_mhartid
	mv	a4,a0
	.loc 2 39 13
	ld	a5,-32(s0)
	sd	a4,80(a5)
	.loc 2 40 5
	j	.L14
.L15:
	.loc 2 44 4
	nop
.L14:
	.loc 2 47 12
	ld	a5,-32(s0)
	ld	a5,0(a5)
	addi	a4,a5,4
	ld	a5,-32(s0)
	sd	a4,0(a5)
	.loc 2 48 1
	nop
	ld	ra,24(sp)
	.cfi_restore 1
	ld	s0,16(sp)
	.cfi_restore 8
	.cfi_def_cfa 2, 32
	addi	sp,sp,32
	.cfi_def_cfa_offset 0
	jr	ra
	.cfi_endproc
.LFE29:
	.size	sbi_ecall_handler, .-sbi_ecall_handler
	.align	2
	.globl	sbi_trap_handler
	.type	sbi_trap_handler, @function
sbi_trap_handler:
.LFB30:
	.loc 2 51 1
	.cfi_startproc
	addi	sp,sp,-48
	.cfi_def_cfa_offset 48
	sd	ra,40(sp)
	sd	s0,32(sp)
	.cfi_offset 1, -8
	.cfi_offset 8, -16
	addi	s0,sp,48
	.cfi_def_cfa 8, 0
	sd	a0,-40(s0)
	.loc 2 55 6
	call	r_mcause
	sd	a0,-24(s0)
	.loc 2 56 5
	ld	a5,-40(s0)
	ld	a5,136(a5)
	sd	a5,-32(s0)
	.loc 2 58 4
	ld	a4,-24(s0)
	li	a5,-1
	slli	a5,a5,63
	bleu	a4,a5,.L17
	.loc 2 60 5
	ld	a4,-24(s0)
	li	a5,-1
	slli	a5,a5,63
	add	a5,a4,a5
	sd	a5,-24(s0)
	.loc 2 61 3
	ld	a4,-24(s0)
	li	a5,7
	bne	a4,a5,.L22
	.loc 2 66 6
	ld	a0,-40(s0)
	call	timer_int_handler
	.loc 2 69 6
	j	.L20
.L17:
	.loc 2 77 3
	ld	a4,-24(s0)
	li	a5,9
	bne	a4,a5,.L23
	.loc 2 81 6
	ld	a5,-32(s0)
	sext.w	a5,a5
	ld	a1,-40(s0)
	mv	a0,a5
	call	sbi_ecall_handler
	.loc 2 82 6
	j	.L20
.L22:
	.loc 2 72 5
	nop
	j	.L24
.L23:
	.loc 2 87 6
	nop
.L20:
.L24:
	.loc 2 91 1
	nop
	ld	ra,40(sp)
	.cfi_restore 1
	ld	s0,32(sp)
	.cfi_restore 8
	.cfi_def_cfa 2, 48
	addi	sp,sp,48
	.cfi_def_cfa_offset 0
	jr	ra
	.cfi_endproc
.LFE30:
	.size	sbi_trap_handler, .-sbi_trap_handler
	.align	2
	.globl	timer_int_handler
	.type	timer_int_handler, @function
timer_int_handler:
.LFB31:
	.loc 2 94 1
	.cfi_startproc
	addi	sp,sp,-32
	.cfi_def_cfa_offset 32
	sd	ra,24(sp)
	sd	s0,16(sp)
	.cfi_offset 1, -8
	.cfi_offset 8, -16
	addi	s0,sp,32
	.cfi_def_cfa 8, 0
	sd	a0,-24(s0)
	.loc 2 96 44
	call	r_mhartid
	mv	a5,a0
	.loc 2 96 59
	li	a4,4198400
	addi	a4,a4,-2048
	add	a4,a5,a4
	slli	a4,a4,3
	ld	a4,0(a4)
	li	a3,4198400
	addi	a3,a3,-2048
	add	a5,a5,a3
	slli	a5,a5,3
	mv	a3,a5
	li	a5,999424
	addi	a5,a5,576
	add	a5,a4,a5
	sd	a5,0(a3)
	.loc 2 99 2
	li	a0,2
	call	w_sip
	.loc 2 100 1
	nop
	ld	ra,24(sp)
	.cfi_restore 1
	ld	s0,16(sp)
	.cfi_restore 8
	.cfi_def_cfa 2, 32
	addi	sp,sp,32
	.cfi_def_cfa_offset 0
	jr	ra
	.cfi_endproc
.LFE31:
	.size	timer_int_handler, .-timer_int_handler
.Letext0:
	.file 3 "sbi/sbi_trap_reg.h"