	.file	"exec.c"
	.option nopic
	.attribute arch, "rv64i2p0_m2p0_a2p0_f2p0_d2p0"
	.attribute unaligned_access, 0
	.attribute stack_align, 16
	.text
.Ltext0:
	.cfi_sections	.debug_frame
	.section	.rodata
	.align	3
.LC0:
	.string	"no such inode found!\n"
	.align	3
.LC1:
	.string	"dame\n"
	.text
	.align	2
	.globl	exec
	.type	exec, @function
exec:
.LFB28:
	.file 1 "src/exec.c"
	.loc 1 12 1
	.cfi_startproc
	addi	sp,sp,-320
	.cfi_def_cfa_offset 320
	sd	ra,312(sp)
	sd	s0,304(sp)
	.cfi_offset 1, -8
	.cfi_offset 8, -16
	addi	s0,sp,320
	.cfi_def_cfa 8, 0
	sd	a0,-312(s0)
	sd	a1,-320(s0)
	.loc 1 17 25
	call	proc_pagetable
	sd	a0,-24(s0)
	.loc 1 19 2
	lla	a1,_trampoline
	li	a4,10
	li	a3,1
	li	a5,67108864
	addi	a5,a5,-1
	slli	a2,a5,12
	ld	a0,-24(s0)
	call	map_page
	.loc 1 20 50
	lla	a5,proc_ptr
	ld	a5,0(a5)
	ld	a5,16(a5)
	.loc 1 20 2
	mv	a1,a5
	li	a4,6
	li	a3,1
	li	a5,33554432
	addi	a5,a5,-1
	slli	a2,a5,13
	ld	a0,-24(s0)
	call	map_page
	.loc 1 22 13
	addi	a5,s0,-120
	mv	a1,a5
	ld	a0,-312(s0)
	call	get_inode
	mv	a5,a0
	sw	a5,-28(s0)
	.loc 1 24 4
	lw	a5,-28(s0)
	sext.w	a5,a5
	bnez	a5,.L2
	.loc 1 26 3
	lla	a0,.LC0
	call	printf
	.loc 1 27 10
	li	a5,-1
	j	.L5
.L2:
	.loc 1 30 2
	addi	a3,s0,-120
	addi	a4,s0,-296
	addi	a5,s0,-184
	mv	a2,a3
	mv	a1,a4
	mv	a0,a5
	call	read_elfhr
	.loc 1 32 45
	ld	a5,-256(s0)
	.loc 1 32 2
	sext.w	a4,a5
	.loc 1 32 67
	ld	a5,-200(s0)
	.loc 1 32 2
	sext.w	a5,a5
	addw	a5,a4,a5
	sext.w	a5,a5
	li	a3,0
	mv	a2,a5
	li	a1,0
	ld	a0,-24(s0)
	call	uvmalloc
	.loc 1 34 2
	ld	a2,-280(s0)
	.loc 1 34 77
	ld	a5,-288(s0)
	.loc 1 34 2
	sext.w	a3,a5
	.loc 1 34 98
	ld	a5,-256(s0)
	.loc 1 34 2
	sext.w	a4,a5
	.loc 1 34 120
	ld	a5,-200(s0)
	.loc 1 34 2
	sext.w	a5,a5
	addw	a5,a4,a5
	sext.w	a4,a5
	addi	a5,s0,-120
	mv	a1,a5
	ld	a0,-24(s0)
	call	loadsec
	.loc 1 36 8
	call	kalloc
	sd	a0,-40(s0)
	.loc 1 37 4
	ld	a5,-40(s0)
	bnez	a5,.L4
	.loc 1 39 3
	lla	a0,.LC1
	call	panic
.L4:
	.loc 1 41 2
	ld	a5,-40(s0)
	li	a4,22
	li	a3,1
	li	a2,8192
	mv	a1,a5
	ld	a0,-24(s0)
	call	map_page
	.loc 1 43 10
	lla	a5,proc_ptr
	ld	a5,0(a5)
	.loc 1 43 27
	ld	a4,-24(s0)
	sd	a4,8(a5)
	.loc 1 44 10
	lla	a5,proc_ptr
	ld	a5,0(a5)
	.loc 1 44 22
	li	a4,12288
	sd	a4,128(a5)
	.loc 1 45 10
	lla	a5,proc_ptr
	ld	a5,0(a5)
	ld	a5,16(a5)
	.loc 1 45 40
	ld	a4,-160(s0)
	.loc 1 45 27
	sd	a4,24(a5)
	.loc 1 46 10
	lla	a5,proc_ptr
	ld	a5,0(a5)
	ld	a5,16(a5)
	.loc 1 46 26
	li	a4,12288
	sd	a4,48(a5)
	.loc 1 50 9
	li	a5,0
.L5:
	.loc 1 51 1 discriminator 1
	mv	a0,a5
	ld	ra,312(sp)
	.cfi_restore 1
	ld	s0,304(sp)
	.cfi_restore 8
	.cfi_def_cfa 2, 320
	addi	sp,sp,320
	.cfi_def_cfa_offset 0
	jr	ra
	.cfi_endproc
.LFE28:
	.size	exec, .-exec
.Letext0:
	.file 2 "src/fs.h"
	.file 3 "src/fd.h"
	.file 4 "src/proc.h"
	.file 5 "include/def.h"