	.file	"fd.c"
	.option nopic
	.attribute arch, "rv64i2p0_m2p0_a2p0_f2p0_d2p0"
	.attribute unaligned_access, 0
	.attribute stack_align, 16
	.text
.Ltext0:
	.cfi_sections	.debug_frame
	.comm	ftable,800,8
	.align	2
	.globl	file_alloc
	.type	file_alloc, @function
file_alloc:
.LFB0:
	.file 1 "src/fd.c"
	.loc 1 10 1
	.cfi_startproc
	addi	sp,sp,-32
	.cfi_def_cfa_offset 32
	sd	s0,24(sp)
	.cfi_offset 8, -8
	addi	s0,sp,32
	.cfi_def_cfa 8, 0
.LBB2:
	.loc 1 11 10
	sw	zero,-20(s0)
	.loc 1 11 2
	j	.L2
.L5:
	.loc 1 13 15
	lla	a3,ftable
	lw	a4,-20(s0)
	mv	a5,a4
	slli	a5,a5,2
	add	a5,a5,a4
	slli	a5,a5,3
	add	a5,a3,a5
	lw	a5,4(a5)
	.loc 1 13 5
	bnez	a5,.L3
	.loc 1 15 22
	lla	a3,ftable
	lw	a4,-20(s0)
	mv	a5,a4
	slli	a5,a5,2
	add	a5,a5,a4
	slli	a5,a5,3
	add	a5,a3,a5
	li	a4,1
	sw	a4,4(a5)
	.loc 1 16 17
	lw	a4,-20(s0)
	mv	a5,a4
	slli	a5,a5,2
	add	a5,a5,a4
	slli	a5,a5,3
	mv	a4,a5
	lla	a5,ftable
	add	a5,a4,a5
	j	.L4
.L3:
	.loc 1 11 22 discriminator 2
	lw	a5,-20(s0)
	addiw	a5,a5,1
	sw	a5,-20(s0)
.L2:
	.loc 1 11 2 discriminator 1
	lw	a5,-20(s0)
	sext.w	a4,a5
	li	a5,19
	ble	a4,a5,.L5
.LBE2:
	.loc 1 20 9
	li	a5,0
.L4:
	.loc 1 21 1
	mv	a0,a5
	ld	s0,24(sp)
	.cfi_restore 8
	.cfi_def_cfa 2, 32
	addi	sp,sp,32
	.cfi_def_cfa_offset 0
	jr	ra
	.cfi_endproc
.LFE0:
	.size	file_alloc, .-file_alloc
	.section	.rodata
	.align	3
.LC0:
	.string	"file's ref_cnt is less than 1"
	.text
	.align	2
	.globl	file_dup
	.type	file_dup, @function
file_dup:
.LFB1:
	.loc 1 24 1
	.cfi_startproc
	addi	sp,sp,-32
	.cfi_def_cfa_offset 32
	sd	ra,24(sp)
	sd	s0,16(sp)
	.cfi_offset 1, -8
	.cfi_offset 8, -16
	addi	s0,sp,32
	.cfi_def_cfa 8, 0
	sd	a0,-24(s0)
	.loc 1 25 9
	ld	a5,-24(s0)
	lw	a5,4(a5)
	.loc 1 25 4
	bgtz	a5,.L7
	.loc 1 27 3
	lla	a0,.LC0
	call	panic
.L7:
	.loc 1 30 6
	ld	a5,-24(s0)
	lw	a5,4(a5)
	.loc 1 30 15
	addiw	a5,a5,1
	sext.w	a4,a5
	ld	a5,-24(s0)
	sw	a4,4(a5)
	.loc 1 32 9
	ld	a5,-24(s0)
	.loc 1 33 1
	mv	a0,a5
	ld	ra,24(sp)
	.cfi_restore 1
	ld	s0,16(sp)
	.cfi_restore 8
	.cfi_def_cfa 2, 32
	addi	sp,sp,32
	.cfi_def_cfa_offset 0
	jr	ra
	.cfi_endproc
.LFE1:
	.size	file_dup, .-file_dup
	.align	2
	.globl	file_close
	.type	file_close, @function
file_close:
.LFB2:
	.loc 1 36 1
	.cfi_startproc
	addi	sp,sp,-32
	.cfi_def_cfa_offset 32
	sd	s0,24(sp)
	.cfi_offset 8, -8
	addi	s0,sp,32
	.cfi_def_cfa 8, 0
	sd	a0,-24(s0)
	.loc 1 37 16
	ld	a5,-24(s0)
	li	a4,-1
	sw	a4,4(a5)
	.loc 1 38 13
	ld	a5,-24(s0)
	sw	zero,0(a5)
	.loc 1 40 1
	nop
	ld	s0,24(sp)
	.cfi_restore 8
	.cfi_def_cfa 2, 32
	addi	sp,sp,32
	.cfi_def_cfa_offset 0
	jr	ra
	.cfi_endproc
.LFE2:
	.size	file_close, .-file_close
	.align	2
	.globl	fd_alloc
	.type	fd_alloc, @function
fd_alloc:
.LFB3:
	.loc 1 43 1
	.cfi_startproc
	addi	sp,sp,-48
	.cfi_def_cfa_offset 48
	sd	s0,40(sp)
	.cfi_offset 8, -8
	addi	s0,sp,48
	.cfi_def_cfa 8, 0
	sd	a0,-40(s0)
.LBB3:
	.loc 1 44 10
	sw	zero,-20(s0)
	.loc 1 44 2
	j	.L11
.L14:
	.loc 1 46 14
	lla	a5,proc_ptr
	ld	a4,0(a5)
	.loc 1 46 21
	lw	a5,-20(s0)
	addi	a5,a5,22
	slli	a5,a5,3
	add	a5,a4,a5
	ld	a5,0(a5)
	.loc 1 46 5
	bnez	a5,.L12
	.loc 1 48 12
	lla	a5,proc_ptr
	ld	a4,0(a5)
	.loc 1 48 23
	lw	a5,-20(s0)
	addi	a5,a5,22
	slli	a5,a5,3
	add	a5,a4,a5
	ld	a4,-40(s0)
	sd	a4,0(a5)
	.loc 1 49 11
	lw	a5,-20(s0)
	j	.L13
.L12:
	.loc 1 44 22 discriminator 2
	lw	a5,-20(s0)
	addiw	a5,a5,1
	sw	a5,-20(s0)
.L11:
	.loc 1 44 2 discriminator 1
	lw	a5,-20(s0)
	sext.w	a4,a5
	li	a5,19
	ble	a4,a5,.L14
.LBE3:
	.loc 1 53 9
	li	a5,-1
.L13:
	.loc 1 54 1
	mv	a0,a5
	ld	s0,40(sp)
	.cfi_restore 8
	.cfi_def_cfa 2, 48
	addi	sp,sp,48
	.cfi_def_cfa_offset 0
	jr	ra
	.cfi_endproc
.LFE3:
	.size	fd_alloc, .-fd_alloc
.Letext0:
	.file 2 "src/fs.h"
	.file 3 "src/proc.h"
	.file 4 "src/fd.h"
	.file 5 "include/def.h"