	.file	"kernel_main.c"
	.option nopic
	.attribute arch, "rv64i2p0_m2p0_a2p0_f2p0_d2p0"
	.attribute unaligned_access, 0
	.attribute stack_align, 16
	.text
.Ltext0:
	.cfi_sections	.debug_frame
	.align	2
	.type	w_satp, @function
w_satp:
.LFB11:
	.file 1 "include/riscv.h"
	.loc 1 127 1
	.cfi_startproc
	addi	sp,sp,-32
	.cfi_def_cfa_offset 32
	sd	s0,24(sp)
	.cfi_offset 8, -8
	addi	s0,sp,32
	.cfi_def_cfa 8, 0
	sd	a0,-24(s0)
	.loc 1 128 2
	ld	a5,-24(s0)
 #APP
# 128 "include/riscv.h" 1
	csrw satp, a5
# 0 "" 2
	.loc 1 132 1
 #NO_APP
	nop
	ld	s0,24(sp)
	.cfi_restore 8
	.cfi_def_cfa 2, 32
	addi	sp,sp,32
	.cfi_def_cfa_offset 0
	jr	ra
	.cfi_endproc
.LFE11:
	.size	w_satp, .-w_satp
	.align	2
	.type	sfence_vma, @function
sfence_vma:
.LFB20:
	.loc 1 210 1
	.cfi_startproc
	addi	sp,sp,-16
	.cfi_def_cfa_offset 16
	sd	s0,8(sp)
	.cfi_offset 8, -8
	addi	s0,sp,16
	.cfi_def_cfa 8, 0
	.loc 1 211 2
 #APP
# 211 "include/riscv.h" 1
	sfence.vma zero, zero
# 0 "" 2
	.loc 1 213 1
 #NO_APP
	nop
	ld	s0,8(sp)
	.cfi_restore 8
	.cfi_def_cfa 2, 16
	addi	sp,sp,16
	.cfi_def_cfa_offset 0
	jr	ra
	.cfi_endproc
.LFE20:
	.size	sfence_vma, .-sfence_vma
	.globl	test_num
	.section	.sbss,"aw",@nobits
	.align	2
	.type	test_num, @object
	.size	test_num, 4
test_num:
	.zero	4
	.comm	print_lock,4,8
	.section	.rodata
	.align	3
.LC0:
	.string	"hello kernel!\n"
	.align	3
.LC1:
	.string	"%d\n"
	.align	3
.LC2:
	.string	"free_mem_start: %p free_mem_end: %p\n"
	.align	3
.LC3:
	.string	"page num: %d\n"
	.align	3
.LC4:
	.string	"matched\n"
	.align	3
.LC5:
	.string	"not matched! n: %d\n"
	.align	3
.LC6:
	.string	"init proc kstack\n"
	.align	3
.LC7:
	.string	"paging before\n"
	.align	3
.LC8:
	.string	"paging after\n"
	.align	3
.LC9:
	.string	"/first_test.out"
	.align	3
.LC10:
	.string	"init first process\n"
	.text
	.align	2
	.globl	kernel_main
	.type	kernel_main, @function
kernel_main:
.LFB28:
	.file 2 "src/kernel_main.c"
	.loc 2 30 1
	.cfi_startproc
	addi	sp,sp,-256
	.cfi_def_cfa_offset 256
	sd	ra,248(sp)
	sd	s0,240(sp)
	.cfi_offset 1, -8
	.cfi_offset 8, -16
	addi	s0,sp,256
	.cfi_def_cfa 8, 0
	.loc 2 33 8
	lla	a5,.LC0
	sd	a5,-32(s0)
	.loc 2 34 20
	lla	a5,print_lock
	sw	zero,0(a5)
.LBB2:
	.loc 2 37 10
	sw	zero,-20(s0)
	.loc 2 37 2
	j	.L4
.L5:
	.loc 2 39 3 discriminator 3
	lla	a0,print_lock
	call	acquire
	.loc 2 40 11 discriminator 3
	lla	a5,test_num
	lw	a5,0(a5)
	addiw	a5,a5,1
	sext.w	a4,a5
	lla	a5,test_num
	sw	a4,0(a5)
	.loc 2 41 3 discriminator 3
	lla	a0,print_lock
	call	release
	.loc 2 37 22 discriminator 3
	lw	a5,-20(s0)
	addiw	a5,a5,1
	sw	a5,-20(s0)
.L4:
	.loc 2 37 2 discriminator 1
	lw	a5,-20(s0)
	sext.w	a4,a5
	li	a5,49
	ble	a4,a5,.L5
.LBE2:
	.loc 2 43 2
	lla	a5,test_num
	lw	a5,0(a5)
	mv	a1,a5
	lla	a0,.LC1
	call	printf
.LBB3:
	.loc 2 45 44
	ld	a5,-32(s0)
	.loc 2 45 28
	mv	a0,a5
	.loc 2 45 104
	li	a1,0
	.loc 2 45 163
	li	a2,0
	.loc 2 45 222
	li	a7,2
	.loc 2 45 260
 #APP
# 45 "src/kernel_main.c" 1
	ecall
# 0 "" 2
 #NO_APP
.LBE3:
	.loc 2 49 19
	li	a5,17
	slli	a1,a5,27
	lla	a0,_free_mem_start
	call	free_mem_in_page
	mv	a5,a0
	sw	a5,-36(s0)
	.loc 2 51 2
	li	a2,-2013265920
	lla	a1,_free_mem_start
	lla	a0,.LC2
	call	printf
	.loc 2 52 2
	lw	a5,-36(s0)
	mv	a1,a5
	lla	a0,.LC3
	call	printf
	.loc 2 54 51
	lla	a5,_free_mem_start
	.loc 2 54 49
	li	a4,17
	slli	a4,a4,27
	sub	a5,a4,a5
	.loc 2 54 83
	srli	a5,a5,12
	.loc 2 54 4
	sw	a5,-40(s0)
	.loc 2 56 7
	lw	a4,-36(s0)
	.loc 2 56 4
	lw	a5,-40(s0)
	sext.w	a5,a5
	bne	a5,a4,.L6
	.loc 2 58 3
	lla	a0,.LC4
	call	uart_send_str
	j	.L7
.L6:
	.loc 2 62 3
	lw	a5,-40(s0)
	mv	a1,a5
	lla	a0,.LC5
	call	printf
.L7:
	.loc 2 67 86
	lla	a4,_trampoline
	.loc 2 67 112
	li	a5,-2147483648
	add	a5,a4,a5
	.loc 2 67 2
	srli	a5,a5,12
	li	a4,14
	mv	a3,a5
	li	a5,1
	slli	a2,a5,31
	li	a5,1
	slli	a1,a5,31
	lla	a0,_pgt_start
	call	map_page
	.loc 2 69 2
	lla	a1,_trampoline
	.loc 2 69 114
	lla	a4,_etext
	.loc 2 69 136
	lla	a5,_trampoline
	.loc 2 69 135
	sub	a5,a4,a5
	.loc 2 69 2
	srli	a5,a5,12
	li	a4,14
	mv	a3,a5
	li	a5,67108864
	addi	a5,a5,-1
	slli	a2,a5,12
	lla	a0,_pgt_start
	call	map_page
	.loc 2 71 2
	lla	a1,_etext
	lla	a2,_etext
	.loc 2 71 121
	lla	a5,_etext
	.loc 2 71 120
	li	a4,17
	slli	a4,a4,27
	sub	a5,a4,a5
	.loc 2 71 2
	srli	a5,a5,12
	li	a4,14
	mv	a3,a5
	lla	a0,_pgt_start
	call	map_page
	.loc 2 73 2
	li	a4,14
	li	a3,1
	li	a2,268435456
	li	a1,268435456
	lla	a0,_pgt_start
	call	map_page
	.loc 2 74 2
	li	a4,14
	li	a3,4096
	li	a2,201326592
	li	a1,201326592
	lla	a0,_pgt_start
	call	map_page
	.loc 2 75 2
	li	a4,14
	li	a3,1
	li	a2,268439552
	li	a1,268439552
	lla	a0,_pgt_start
	call	map_page
	.loc 2 79 2
	lla	a0,_pgt_start
	call	init_proc_kstack
	.loc 2 80 2
	lla	a0,.LC6
	call	uart_send_str
	.loc 2 84 2
	lla	a0,.LC7
	call	uart_send_str
	.loc 2 85 2
	call	sfence_vma
	.loc 2 86 25
	lla	a5,_pgt_start
	.loc 2 86 53
	srli	a4,a5,12
	.loc 2 86 2
	li	a5,-1
	slli	a5,a5,63
	or	a5,a4,a5
	mv	a0,a5
	call	w_satp
	.loc 2 87 2
	call	sfence_vma
	.loc 2 88 2
	lla	a0,.LC8
	call	uart_send_str
	.loc 2 94 2
	call	src_trap_init
	.loc 2 99 2
	call	virt_disk_init
	.loc 2 102 2
	call	plicinit
	.loc 2 103 2
	call	plicinithart
	.loc 2 104 2
	call	fs_init
	.loc 2 109 13
	addi	a5,s0,-128
	mv	a1,a5
	lla	a0,.LC9
	call	get_inode
	mv	a5,a0
	sw	a5,-44(s0)
	.loc 2 110 2
	addi	a3,s0,-128
	addi	a4,s0,-248
	addi	a5,s0,-192
	mv	a2,a3
	mv	a1,a4
	mv	a0,a5
	call	read_elfhr
	.loc 2 113 2
	call	user_init
	.loc 2 114 2
	lla	a0,.LC10
	call	uart_send_str
	.loc 2 116 2
	fence	iorw,iorw
	.loc 2 119 2
	call	scheduler
.L8:
	.loc 2 121 7 discriminator 1
	j	.L8
	.cfi_endproc
.LFE28:
	.size	kernel_main, .-kernel_main
.Letext0:
	.file 3 "src/fs.h"
	.file 4 "src/fd.h"
	.file 5 "src/locks.h"
	.file 6 "src/proc.h"
	.file 7 "include/def.h"