	.file	"locks.c"
	.option nopic
	.attribute arch, "rv64i2p0_m2p0_a2p0_f2p0_d2p0"
	.attribute unaligned_access, 0
	.attribute stack_align, 16
	.text
.Ltext0:
	.cfi_sections	.debug_frame
	.align	2
	.globl	acquire
	.type	acquire, @function
acquire:
.LFB0:
	.file 1 "src/locks.c"
	.loc 1 4 1
	.cfi_startproc
	addi	sp,sp,-32
	.cfi_def_cfa_offset 32
	sd	s0,24(sp)
	.cfi_offset 8, -8
	addi	s0,sp,32
	.cfi_def_cfa 8, 0
	sd	a0,-24(s0)
	.loc 1 5 7
	nop
.L2:
	.loc 1 5 33 discriminator 1
	ld	a5,-24(s0)
	.loc 1 5 8 discriminator 1
	li	a4,1
	amoswap.w.aq a4,a4,0(a5)
	sext.w	a5,a4
	.loc 1 5 7 discriminator 1
	bnez	a5,.L2
	.loc 1 7 2
	fence	iorw,iorw
	.loc 1 8 1
	nop
	ld	s0,24(sp)
	.cfi_restore 8
	.cfi_def_cfa 2, 32
	addi	sp,sp,32
	.cfi_def_cfa_offset 0
	jr	ra
	.cfi_endproc
.LFE0:
	.size	acquire, .-acquire
	.align	2
	.globl	release
	.type	release, @function
release:
.LFB1:
	.loc 1 11 1
	.cfi_startproc
	addi	sp,sp,-32
	.cfi_def_cfa_offset 32
	sd	s0,24(sp)
	.cfi_offset 8, -8
	addi	s0,sp,32
	.cfi_def_cfa 8, 0
	sd	a0,-24(s0)
	.loc 1 12 2
	fence	iorw,iorw
	.loc 1 14 22
	ld	a5,-24(s0)
	.loc 1 14 2
	fence iorw,ow; amoswap.w zero,zero,0(a5)
	.loc 1 15 1
	nop
	ld	s0,24(sp)
	.cfi_restore 8
	.cfi_def_cfa 2, 32
	addi	sp,sp,32
	.cfi_def_cfa_offset 0
	jr	ra
	.cfi_endproc
.LFE1:
	.size	release, .-release
.Letext0:
	.file 2 "src/locks.h"