	.file	"plic.c"
	.option nopic
	.attribute arch, "rv64i2p0_m2p0_a2p0_f2p0_d2p0"
	.attribute unaligned_access, 0
	.attribute stack_align, 16
	.text
.Ltext0:
	.cfi_sections	.debug_frame
	.align	2
	.globl	plicinit
	.type	plicinit, @function
plicinit:
.LFB28:
	.file 1 "src/plic.c"
	.loc 1 7 1
	.cfi_startproc
	addi	sp,sp,-16
	.cfi_def_cfa_offset 16
	sd	s0,8(sp)
	.cfi_offset 8, -8
	addi	s0,sp,16
	.cfi_def_cfa 8, 0
	.loc 1 9 3
	li	a5,201326592
	addi	a5,a5,40
	.loc 1 9 40
	li	a4,1
	sw	a4,0(a5)
	.loc 1 10 3
	li	a5,201326592
	addi	a5,a5,4
	.loc 1 10 39
	li	a4,1
	sw	a4,0(a5)
	.loc 1 11 1
	nop
	ld	s0,8(sp)
	.cfi_restore 8
	.cfi_def_cfa 2, 16
	addi	sp,sp,16
	.cfi_def_cfa_offset 0
	jr	ra
	.cfi_endproc
.LFE28:
	.size	plicinit, .-plicinit
	.align	2
	.globl	plicinithart
	.type	plicinithart, @function
plicinithart:
.LFB29:
	.loc 1 15 1
	.cfi_startproc
	addi	sp,sp,-32
	.cfi_def_cfa_offset 32
	sd	s0,24(sp)
	.cfi_offset 8, -8
	addi	s0,sp,32
	.cfi_def_cfa 8, 0
	.loc 1 16 7
	sw	zero,-20(s0)
	.loc 1 20 49
	lw	a5,-20(s0)
	slliw	a5,a5,8
	sext.w	a5,a5
	mv	a4,a5
	.loc 1 20 41
	li	a5,201334784
	addi	a5,a5,128
	add	a5,a4,a5
	.loc 1 20 4
	mv	a4,a5
	.loc 1 20 57
	li	a5,1026
	sw	a5,0(a4)
	.loc 1 23 51
	lw	a5,-20(s0)
	slliw	a5,a5,13
	sext.w	a5,a5
	mv	a4,a5
	.loc 1 23 43
	li	a5,203427840
	add	a5,a4,a5
	.loc 1 23 60
	sw	zero,0(a5)
	.loc 1 24 1
	nop
	ld	s0,24(sp)
	.cfi_restore 8
	.cfi_def_cfa 2, 32
	addi	sp,sp,32
	.cfi_def_cfa_offset 0
	jr	ra
	.cfi_endproc
.LFE29:
	.size	plicinithart, .-plicinithart
	.align	2
	.globl	plic_claim
	.type	plic_claim, @function
plic_claim:
.LFB30:
	.loc 1 29 1
	.cfi_startproc
	addi	sp,sp,-32
	.cfi_def_cfa_offset 32
	sd	s0,24(sp)
	.cfi_offset 8, -8
	addi	s0,sp,32
	.cfi_def_cfa 8, 0
	.loc 1 30 7
	sw	zero,-20(s0)
	.loc 1 31 61
	lw	a5,-20(s0)
	slliw	a5,a5,13
	sext.w	a5,a5
	mv	a4,a5
	.loc 1 31 53
	li	a5,203427840
	addi	a5,a5,4
	add	a5,a4,a5
	.loc 1 31 13
	lw	a5,0(a5)
	.loc 1 31 7
	sw	a5,-24(s0)
	.loc 1 32 10
	lw	a5,-24(s0)
	.loc 1 33 1
	mv	a0,a5
	ld	s0,24(sp)
	.cfi_restore 8
	.cfi_def_cfa 2, 32
	addi	sp,sp,32
	.cfi_def_cfa_offset 0
	jr	ra
	.cfi_endproc
.LFE30:
	.size	plic_claim, .-plic_claim
	.align	2
	.globl	plic_complete
	.type	plic_complete, @function
plic_complete:
.LFB31:
	.loc 1 38 1
	.cfi_startproc
	addi	sp,sp,-48
	.cfi_def_cfa_offset 48
	sd	s0,40(sp)
	.cfi_offset 8, -8
	addi	s0,sp,48
	.cfi_def_cfa 8, 0
	mv	a5,a0
	sw	a5,-36(s0)
	.loc 1 39 7
	sw	zero,-20(s0)
	.loc 1 40 51
	lw	a5,-20(s0)
	slliw	a5,a5,13
	sext.w	a5,a5
	mv	a4,a5
	.loc 1 40 43
	li	a5,203427840
	addi	a5,a5,4
	add	a5,a4,a5
	.loc 1 40 4
	mv	a4,a5
	.loc 1 40 60
	lw	a5,-36(s0)
	sw	a5,0(a4)
	.loc 1 41 1
	nop
	ld	s0,40(sp)
	.cfi_restore 8
	.cfi_def_cfa 2, 48
	addi	sp,sp,48
	.cfi_def_cfa_offset 0
	jr	ra
	.cfi_endproc
.LFE31:
	.size	plic_complete, .-plic_complete
.Letext0: